ARM GAS  /var/folders/jr/lt9tb7vj2871x9rxdxc0hz4h0000gn/T//cc3ly4vt.s 			page 1


   1              		.cpu cortex-m4
   2              		.arch armv7e-m
   3              		.fpu fpv4-sp-d16
   4              		.eabi_attribute 27, 1
   5              		.eabi_attribute 28, 1
   6              		.eabi_attribute 20, 1
   7              		.eabi_attribute 21, 1
   8              		.eabi_attribute 23, 3
   9              		.eabi_attribute 24, 1
  10              		.eabi_attribute 25, 1
  11              		.eabi_attribute 26, 1
  12              		.eabi_attribute 30, 1
  13              		.eabi_attribute 34, 1
  14              		.eabi_attribute 18, 4
  15              		.file	"usbd_core.c"
  16              		.text
  17              	.Ltext0:
  18              		.cfi_sections	.debug_frame
  19              		.section	.text.USBD_Init,"ax",%progbits
  20              		.align	1
  21              		.global	USBD_Init
  22              		.syntax unified
  23              		.thumb
  24              		.thumb_func
  26              	USBD_Init:
  27              	.LVL0:
  28              	.LFB133:
  29              		.file 1 "Middlewares/ST/STM32_USB_Device_Library/Core/Src/usbd_core.c"
   1:Middlewares/ST/STM32_USB_Device_Library/Core/Src/usbd_core.c **** /**
   2:Middlewares/ST/STM32_USB_Device_Library/Core/Src/usbd_core.c ****   ******************************************************************************
   3:Middlewares/ST/STM32_USB_Device_Library/Core/Src/usbd_core.c ****   * @file    usbd_core.c
   4:Middlewares/ST/STM32_USB_Device_Library/Core/Src/usbd_core.c ****   * @author  MCD Application Team
   5:Middlewares/ST/STM32_USB_Device_Library/Core/Src/usbd_core.c ****   * @brief   This file provides all the USBD core functions.
   6:Middlewares/ST/STM32_USB_Device_Library/Core/Src/usbd_core.c ****   ******************************************************************************
   7:Middlewares/ST/STM32_USB_Device_Library/Core/Src/usbd_core.c ****   * @attention
   8:Middlewares/ST/STM32_USB_Device_Library/Core/Src/usbd_core.c ****   *
   9:Middlewares/ST/STM32_USB_Device_Library/Core/Src/usbd_core.c ****   * <h2><center>&copy; Copyright (c) 2015 STMicroelectronics.
  10:Middlewares/ST/STM32_USB_Device_Library/Core/Src/usbd_core.c ****   * All rights reserved.</center></h2>
  11:Middlewares/ST/STM32_USB_Device_Library/Core/Src/usbd_core.c ****   *
  12:Middlewares/ST/STM32_USB_Device_Library/Core/Src/usbd_core.c ****   * This software component is licensed by ST under Ultimate Liberty license
  13:Middlewares/ST/STM32_USB_Device_Library/Core/Src/usbd_core.c ****   * SLA0044, the "License"; You may not use this file except in compliance with
  14:Middlewares/ST/STM32_USB_Device_Library/Core/Src/usbd_core.c ****   * the License. You may obtain a copy of the License at:
  15:Middlewares/ST/STM32_USB_Device_Library/Core/Src/usbd_core.c ****   *                      http://www.st.com/SLA0044
  16:Middlewares/ST/STM32_USB_Device_Library/Core/Src/usbd_core.c ****   *
  17:Middlewares/ST/STM32_USB_Device_Library/Core/Src/usbd_core.c ****   ******************************************************************************
  18:Middlewares/ST/STM32_USB_Device_Library/Core/Src/usbd_core.c ****   */
  19:Middlewares/ST/STM32_USB_Device_Library/Core/Src/usbd_core.c **** 
  20:Middlewares/ST/STM32_USB_Device_Library/Core/Src/usbd_core.c **** /* Includes ------------------------------------------------------------------*/
  21:Middlewares/ST/STM32_USB_Device_Library/Core/Src/usbd_core.c **** #include "usbd_core.h"
  22:Middlewares/ST/STM32_USB_Device_Library/Core/Src/usbd_core.c **** 
  23:Middlewares/ST/STM32_USB_Device_Library/Core/Src/usbd_core.c **** /** @addtogroup STM32_USBD_DEVICE_LIBRARY
  24:Middlewares/ST/STM32_USB_Device_Library/Core/Src/usbd_core.c **** * @{
  25:Middlewares/ST/STM32_USB_Device_Library/Core/Src/usbd_core.c **** */
  26:Middlewares/ST/STM32_USB_Device_Library/Core/Src/usbd_core.c **** 
  27:Middlewares/ST/STM32_USB_Device_Library/Core/Src/usbd_core.c **** 
  28:Middlewares/ST/STM32_USB_Device_Library/Core/Src/usbd_core.c **** /** @defgroup USBD_CORE
  29:Middlewares/ST/STM32_USB_Device_Library/Core/Src/usbd_core.c **** * @brief usbd core module
ARM GAS  /var/folders/jr/lt9tb7vj2871x9rxdxc0hz4h0000gn/T//cc3ly4vt.s 			page 2


  30:Middlewares/ST/STM32_USB_Device_Library/Core/Src/usbd_core.c **** * @{
  31:Middlewares/ST/STM32_USB_Device_Library/Core/Src/usbd_core.c **** */
  32:Middlewares/ST/STM32_USB_Device_Library/Core/Src/usbd_core.c **** 
  33:Middlewares/ST/STM32_USB_Device_Library/Core/Src/usbd_core.c **** /** @defgroup USBD_CORE_Private_TypesDefinitions
  34:Middlewares/ST/STM32_USB_Device_Library/Core/Src/usbd_core.c **** * @{
  35:Middlewares/ST/STM32_USB_Device_Library/Core/Src/usbd_core.c **** */
  36:Middlewares/ST/STM32_USB_Device_Library/Core/Src/usbd_core.c **** /**
  37:Middlewares/ST/STM32_USB_Device_Library/Core/Src/usbd_core.c **** * @}
  38:Middlewares/ST/STM32_USB_Device_Library/Core/Src/usbd_core.c **** */
  39:Middlewares/ST/STM32_USB_Device_Library/Core/Src/usbd_core.c **** 
  40:Middlewares/ST/STM32_USB_Device_Library/Core/Src/usbd_core.c **** 
  41:Middlewares/ST/STM32_USB_Device_Library/Core/Src/usbd_core.c **** /** @defgroup USBD_CORE_Private_Defines
  42:Middlewares/ST/STM32_USB_Device_Library/Core/Src/usbd_core.c **** * @{
  43:Middlewares/ST/STM32_USB_Device_Library/Core/Src/usbd_core.c **** */
  44:Middlewares/ST/STM32_USB_Device_Library/Core/Src/usbd_core.c **** 
  45:Middlewares/ST/STM32_USB_Device_Library/Core/Src/usbd_core.c **** /**
  46:Middlewares/ST/STM32_USB_Device_Library/Core/Src/usbd_core.c **** * @}
  47:Middlewares/ST/STM32_USB_Device_Library/Core/Src/usbd_core.c **** */
  48:Middlewares/ST/STM32_USB_Device_Library/Core/Src/usbd_core.c **** 
  49:Middlewares/ST/STM32_USB_Device_Library/Core/Src/usbd_core.c **** 
  50:Middlewares/ST/STM32_USB_Device_Library/Core/Src/usbd_core.c **** /** @defgroup USBD_CORE_Private_Macros
  51:Middlewares/ST/STM32_USB_Device_Library/Core/Src/usbd_core.c **** * @{
  52:Middlewares/ST/STM32_USB_Device_Library/Core/Src/usbd_core.c **** */
  53:Middlewares/ST/STM32_USB_Device_Library/Core/Src/usbd_core.c **** /**
  54:Middlewares/ST/STM32_USB_Device_Library/Core/Src/usbd_core.c **** * @}
  55:Middlewares/ST/STM32_USB_Device_Library/Core/Src/usbd_core.c **** */
  56:Middlewares/ST/STM32_USB_Device_Library/Core/Src/usbd_core.c **** 
  57:Middlewares/ST/STM32_USB_Device_Library/Core/Src/usbd_core.c **** 
  58:Middlewares/ST/STM32_USB_Device_Library/Core/Src/usbd_core.c **** 
  59:Middlewares/ST/STM32_USB_Device_Library/Core/Src/usbd_core.c **** 
  60:Middlewares/ST/STM32_USB_Device_Library/Core/Src/usbd_core.c **** /** @defgroup USBD_CORE_Private_FunctionPrototypes
  61:Middlewares/ST/STM32_USB_Device_Library/Core/Src/usbd_core.c **** * @{
  62:Middlewares/ST/STM32_USB_Device_Library/Core/Src/usbd_core.c **** */
  63:Middlewares/ST/STM32_USB_Device_Library/Core/Src/usbd_core.c **** 
  64:Middlewares/ST/STM32_USB_Device_Library/Core/Src/usbd_core.c **** /**
  65:Middlewares/ST/STM32_USB_Device_Library/Core/Src/usbd_core.c **** * @}
  66:Middlewares/ST/STM32_USB_Device_Library/Core/Src/usbd_core.c **** */
  67:Middlewares/ST/STM32_USB_Device_Library/Core/Src/usbd_core.c **** 
  68:Middlewares/ST/STM32_USB_Device_Library/Core/Src/usbd_core.c **** /** @defgroup USBD_CORE_Private_Variables
  69:Middlewares/ST/STM32_USB_Device_Library/Core/Src/usbd_core.c **** * @{
  70:Middlewares/ST/STM32_USB_Device_Library/Core/Src/usbd_core.c **** */
  71:Middlewares/ST/STM32_USB_Device_Library/Core/Src/usbd_core.c **** 
  72:Middlewares/ST/STM32_USB_Device_Library/Core/Src/usbd_core.c **** /**
  73:Middlewares/ST/STM32_USB_Device_Library/Core/Src/usbd_core.c **** * @}
  74:Middlewares/ST/STM32_USB_Device_Library/Core/Src/usbd_core.c **** */
  75:Middlewares/ST/STM32_USB_Device_Library/Core/Src/usbd_core.c **** 
  76:Middlewares/ST/STM32_USB_Device_Library/Core/Src/usbd_core.c **** /** @defgroup USBD_CORE_Private_Functions
  77:Middlewares/ST/STM32_USB_Device_Library/Core/Src/usbd_core.c **** * @{
  78:Middlewares/ST/STM32_USB_Device_Library/Core/Src/usbd_core.c **** */
  79:Middlewares/ST/STM32_USB_Device_Library/Core/Src/usbd_core.c **** 
  80:Middlewares/ST/STM32_USB_Device_Library/Core/Src/usbd_core.c **** /**
  81:Middlewares/ST/STM32_USB_Device_Library/Core/Src/usbd_core.c **** * @brief  USBD_Init
  82:Middlewares/ST/STM32_USB_Device_Library/Core/Src/usbd_core.c **** *         Initializes the device stack and load the class driver
  83:Middlewares/ST/STM32_USB_Device_Library/Core/Src/usbd_core.c **** * @param  pdev: device instance
  84:Middlewares/ST/STM32_USB_Device_Library/Core/Src/usbd_core.c **** * @param  pdesc: Descriptor structure address
  85:Middlewares/ST/STM32_USB_Device_Library/Core/Src/usbd_core.c **** * @param  id: Low level core index
  86:Middlewares/ST/STM32_USB_Device_Library/Core/Src/usbd_core.c **** * @retval None
ARM GAS  /var/folders/jr/lt9tb7vj2871x9rxdxc0hz4h0000gn/T//cc3ly4vt.s 			page 3


  87:Middlewares/ST/STM32_USB_Device_Library/Core/Src/usbd_core.c **** */
  88:Middlewares/ST/STM32_USB_Device_Library/Core/Src/usbd_core.c **** USBD_StatusTypeDef USBD_Init(USBD_HandleTypeDef *pdev, USBD_DescriptorsTypeDef *pdesc, uint8_t id)
  89:Middlewares/ST/STM32_USB_Device_Library/Core/Src/usbd_core.c **** {
  30              		.loc 1 89 1 view -0
  31              		.cfi_startproc
  32              		@ args = 0, pretend = 0, frame = 0
  33              		@ frame_needed = 0, uses_anonymous_args = 0
  90:Middlewares/ST/STM32_USB_Device_Library/Core/Src/usbd_core.c ****   /* Check whether the USB Host handle is valid */
  91:Middlewares/ST/STM32_USB_Device_Library/Core/Src/usbd_core.c ****   if(pdev == NULL)
  34              		.loc 1 91 3 view .LVU1
  35              		.loc 1 91 5 is_stmt 0 view .LVU2
  36 0000 98B1     		cbz	r0, .L5
  89:Middlewares/ST/STM32_USB_Device_Library/Core/Src/usbd_core.c ****   /* Check whether the USB Host handle is valid */
  37              		.loc 1 89 1 view .LVU3
  38 0002 08B5     		push	{r3, lr}
  39              	.LCFI0:
  40              		.cfi_def_cfa_offset 8
  41              		.cfi_offset 3, -8
  42              		.cfi_offset 14, -4
  43 0004 0346     		mov	r3, r0
  92:Middlewares/ST/STM32_USB_Device_Library/Core/Src/usbd_core.c ****   {
  93:Middlewares/ST/STM32_USB_Device_Library/Core/Src/usbd_core.c **** #if (USBD_DEBUG_LEVEL > 1U)
  94:Middlewares/ST/STM32_USB_Device_Library/Core/Src/usbd_core.c ****     USBD_ErrLog("Invalid Device handle");
  95:Middlewares/ST/STM32_USB_Device_Library/Core/Src/usbd_core.c **** #endif
  96:Middlewares/ST/STM32_USB_Device_Library/Core/Src/usbd_core.c ****     return USBD_FAIL;
  97:Middlewares/ST/STM32_USB_Device_Library/Core/Src/usbd_core.c ****   }
  98:Middlewares/ST/STM32_USB_Device_Library/Core/Src/usbd_core.c **** 
  99:Middlewares/ST/STM32_USB_Device_Library/Core/Src/usbd_core.c ****   /* Unlink previous class*/
 100:Middlewares/ST/STM32_USB_Device_Library/Core/Src/usbd_core.c ****   if(pdev->pClass != NULL)
  44              		.loc 1 100 3 is_stmt 1 view .LVU4
  45              		.loc 1 100 10 is_stmt 0 view .LVU5
  46 0006 D0F88C02 		ldr	r0, [r0, #652]
  47              	.LVL1:
  48              		.loc 1 100 5 view .LVU6
  49 000a 10B1     		cbz	r0, .L3
 101:Middlewares/ST/STM32_USB_Device_Library/Core/Src/usbd_core.c ****   {
 102:Middlewares/ST/STM32_USB_Device_Library/Core/Src/usbd_core.c ****     pdev->pClass = NULL;
  50              		.loc 1 102 5 is_stmt 1 view .LVU7
  51              		.loc 1 102 18 is_stmt 0 view .LVU8
  52 000c 0020     		movs	r0, #0
  53 000e C3F88C02 		str	r0, [r3, #652]
  54              	.L3:
 103:Middlewares/ST/STM32_USB_Device_Library/Core/Src/usbd_core.c ****   }
 104:Middlewares/ST/STM32_USB_Device_Library/Core/Src/usbd_core.c **** 
 105:Middlewares/ST/STM32_USB_Device_Library/Core/Src/usbd_core.c ****   /* Assign USBD Descriptors */
 106:Middlewares/ST/STM32_USB_Device_Library/Core/Src/usbd_core.c ****   if(pdesc != NULL)
  55              		.loc 1 106 3 is_stmt 1 view .LVU9
  56              		.loc 1 106 5 is_stmt 0 view .LVU10
  57 0012 09B1     		cbz	r1, .L4
 107:Middlewares/ST/STM32_USB_Device_Library/Core/Src/usbd_core.c ****   {
 108:Middlewares/ST/STM32_USB_Device_Library/Core/Src/usbd_core.c ****     pdev->pDesc = pdesc;
  58              		.loc 1 108 5 is_stmt 1 view .LVU11
  59              		.loc 1 108 17 is_stmt 0 view .LVU12
  60 0014 C3F88812 		str	r1, [r3, #648]
  61              	.L4:
 109:Middlewares/ST/STM32_USB_Device_Library/Core/Src/usbd_core.c ****   }
 110:Middlewares/ST/STM32_USB_Device_Library/Core/Src/usbd_core.c **** 
ARM GAS  /var/folders/jr/lt9tb7vj2871x9rxdxc0hz4h0000gn/T//cc3ly4vt.s 			page 4


 111:Middlewares/ST/STM32_USB_Device_Library/Core/Src/usbd_core.c ****   /* Set Device initial State */
 112:Middlewares/ST/STM32_USB_Device_Library/Core/Src/usbd_core.c ****   pdev->dev_state  = USBD_STATE_DEFAULT;
  62              		.loc 1 112 3 is_stmt 1 view .LVU13
  63              		.loc 1 112 20 is_stmt 0 view .LVU14
  64 0018 0121     		movs	r1, #1
  65              	.LVL2:
  66              		.loc 1 112 20 view .LVU15
  67 001a 83F87412 		strb	r1, [r3, #628]
 113:Middlewares/ST/STM32_USB_Device_Library/Core/Src/usbd_core.c ****   pdev->id = id;
  68              		.loc 1 113 3 is_stmt 1 view .LVU16
  69              		.loc 1 113 12 is_stmt 0 view .LVU17
  70 001e 1A70     		strb	r2, [r3]
 114:Middlewares/ST/STM32_USB_Device_Library/Core/Src/usbd_core.c ****   /* Initialize low level driver */
 115:Middlewares/ST/STM32_USB_Device_Library/Core/Src/usbd_core.c ****   USBD_LL_Init(pdev);
  71              		.loc 1 115 3 is_stmt 1 view .LVU18
  72 0020 1846     		mov	r0, r3
  73 0022 FFF7FEFF 		bl	USBD_LL_Init
  74              	.LVL3:
 116:Middlewares/ST/STM32_USB_Device_Library/Core/Src/usbd_core.c **** 
 117:Middlewares/ST/STM32_USB_Device_Library/Core/Src/usbd_core.c ****   return USBD_OK;
  75              		.loc 1 117 3 view .LVU19
  76              		.loc 1 117 10 is_stmt 0 view .LVU20
  77 0026 0020     		movs	r0, #0
 118:Middlewares/ST/STM32_USB_Device_Library/Core/Src/usbd_core.c **** }
  78              		.loc 1 118 1 view .LVU21
  79 0028 08BD     		pop	{r3, pc}
  80              	.LVL4:
  81              	.L5:
  82              	.LCFI1:
  83              		.cfi_def_cfa_offset 0
  84              		.cfi_restore 3
  85              		.cfi_restore 14
  96:Middlewares/ST/STM32_USB_Device_Library/Core/Src/usbd_core.c ****   }
  86              		.loc 1 96 12 view .LVU22
  87 002a 0220     		movs	r0, #2
  88              	.LVL5:
  89              		.loc 1 118 1 view .LVU23
  90 002c 7047     		bx	lr
  91              		.cfi_endproc
  92              	.LFE133:
  94              		.section	.text.USBD_DeInit,"ax",%progbits
  95              		.align	1
  96              		.global	USBD_DeInit
  97              		.syntax unified
  98              		.thumb
  99              		.thumb_func
 101              	USBD_DeInit:
 102              	.LVL6:
 103              	.LFB134:
 119:Middlewares/ST/STM32_USB_Device_Library/Core/Src/usbd_core.c **** 
 120:Middlewares/ST/STM32_USB_Device_Library/Core/Src/usbd_core.c **** /**
 121:Middlewares/ST/STM32_USB_Device_Library/Core/Src/usbd_core.c **** * @brief  USBD_DeInit
 122:Middlewares/ST/STM32_USB_Device_Library/Core/Src/usbd_core.c **** *         Re-Initialize th device library
 123:Middlewares/ST/STM32_USB_Device_Library/Core/Src/usbd_core.c **** * @param  pdev: device instance
 124:Middlewares/ST/STM32_USB_Device_Library/Core/Src/usbd_core.c **** * @retval status: status
 125:Middlewares/ST/STM32_USB_Device_Library/Core/Src/usbd_core.c **** */
 126:Middlewares/ST/STM32_USB_Device_Library/Core/Src/usbd_core.c **** USBD_StatusTypeDef USBD_DeInit(USBD_HandleTypeDef *pdev)
ARM GAS  /var/folders/jr/lt9tb7vj2871x9rxdxc0hz4h0000gn/T//cc3ly4vt.s 			page 5


 127:Middlewares/ST/STM32_USB_Device_Library/Core/Src/usbd_core.c **** {
 104              		.loc 1 127 1 is_stmt 1 view -0
 105              		.cfi_startproc
 106              		@ args = 0, pretend = 0, frame = 0
 107              		@ frame_needed = 0, uses_anonymous_args = 0
 108              		.loc 1 127 1 is_stmt 0 view .LVU25
 109 0000 10B5     		push	{r4, lr}
 110              	.LCFI2:
 111              		.cfi_def_cfa_offset 8
 112              		.cfi_offset 4, -8
 113              		.cfi_offset 14, -4
 114 0002 0446     		mov	r4, r0
 128:Middlewares/ST/STM32_USB_Device_Library/Core/Src/usbd_core.c ****   /* Set Default State */
 129:Middlewares/ST/STM32_USB_Device_Library/Core/Src/usbd_core.c ****   pdev->dev_state  = USBD_STATE_DEFAULT;
 115              		.loc 1 129 3 is_stmt 1 view .LVU26
 116              		.loc 1 129 20 is_stmt 0 view .LVU27
 117 0004 0123     		movs	r3, #1
 118 0006 80F87432 		strb	r3, [r0, #628]
 130:Middlewares/ST/STM32_USB_Device_Library/Core/Src/usbd_core.c **** 
 131:Middlewares/ST/STM32_USB_Device_Library/Core/Src/usbd_core.c ****   /* Free Class Resources */
 132:Middlewares/ST/STM32_USB_Device_Library/Core/Src/usbd_core.c ****   pdev->pClass->DeInit(pdev, (uint8_t)pdev->dev_config);
 119              		.loc 1 132 3 is_stmt 1 view .LVU28
 120              		.loc 1 132 7 is_stmt 0 view .LVU29
 121 000a D0F88C32 		ldr	r3, [r0, #652]
 122              		.loc 1 132 15 view .LVU30
 123 000e 5B68     		ldr	r3, [r3, #4]
 124              		.loc 1 132 3 view .LVU31
 125 0010 0179     		ldrb	r1, [r0, #4]	@ zero_extendqisi2
 126 0012 9847     		blx	r3
 127              	.LVL7:
 133:Middlewares/ST/STM32_USB_Device_Library/Core/Src/usbd_core.c **** 
 134:Middlewares/ST/STM32_USB_Device_Library/Core/Src/usbd_core.c ****     /* Stop the low level driver  */
 135:Middlewares/ST/STM32_USB_Device_Library/Core/Src/usbd_core.c ****   USBD_LL_Stop(pdev);
 128              		.loc 1 135 3 is_stmt 1 view .LVU32
 129 0014 2046     		mov	r0, r4
 130 0016 FFF7FEFF 		bl	USBD_LL_Stop
 131              	.LVL8:
 136:Middlewares/ST/STM32_USB_Device_Library/Core/Src/usbd_core.c **** 
 137:Middlewares/ST/STM32_USB_Device_Library/Core/Src/usbd_core.c ****   /* Initialize low level driver */
 138:Middlewares/ST/STM32_USB_Device_Library/Core/Src/usbd_core.c ****   USBD_LL_DeInit(pdev);
 132              		.loc 1 138 3 view .LVU33
 133 001a 2046     		mov	r0, r4
 134 001c FFF7FEFF 		bl	USBD_LL_DeInit
 135              	.LVL9:
 139:Middlewares/ST/STM32_USB_Device_Library/Core/Src/usbd_core.c **** 
 140:Middlewares/ST/STM32_USB_Device_Library/Core/Src/usbd_core.c ****   return USBD_OK;
 136              		.loc 1 140 3 view .LVU34
 141:Middlewares/ST/STM32_USB_Device_Library/Core/Src/usbd_core.c **** }
 137              		.loc 1 141 1 is_stmt 0 view .LVU35
 138 0020 0020     		movs	r0, #0
 139 0022 10BD     		pop	{r4, pc}
 140              		.loc 1 141 1 view .LVU36
 141              		.cfi_endproc
 142              	.LFE134:
 144              		.section	.text.USBD_RegisterClass,"ax",%progbits
 145              		.align	1
 146              		.global	USBD_RegisterClass
ARM GAS  /var/folders/jr/lt9tb7vj2871x9rxdxc0hz4h0000gn/T//cc3ly4vt.s 			page 6


 147              		.syntax unified
 148              		.thumb
 149              		.thumb_func
 151              	USBD_RegisterClass:
 152              	.LVL10:
 153              	.LFB135:
 142:Middlewares/ST/STM32_USB_Device_Library/Core/Src/usbd_core.c **** 
 143:Middlewares/ST/STM32_USB_Device_Library/Core/Src/usbd_core.c **** /**
 144:Middlewares/ST/STM32_USB_Device_Library/Core/Src/usbd_core.c ****   * @brief  USBD_RegisterClass
 145:Middlewares/ST/STM32_USB_Device_Library/Core/Src/usbd_core.c ****   *         Link class driver to Device Core.
 146:Middlewares/ST/STM32_USB_Device_Library/Core/Src/usbd_core.c ****   * @param  pDevice : Device Handle
 147:Middlewares/ST/STM32_USB_Device_Library/Core/Src/usbd_core.c ****   * @param  pclass: Class handle
 148:Middlewares/ST/STM32_USB_Device_Library/Core/Src/usbd_core.c ****   * @retval USBD Status
 149:Middlewares/ST/STM32_USB_Device_Library/Core/Src/usbd_core.c ****   */
 150:Middlewares/ST/STM32_USB_Device_Library/Core/Src/usbd_core.c **** USBD_StatusTypeDef  USBD_RegisterClass(USBD_HandleTypeDef *pdev, USBD_ClassTypeDef *pclass)
 151:Middlewares/ST/STM32_USB_Device_Library/Core/Src/usbd_core.c **** {
 154              		.loc 1 151 1 is_stmt 1 view -0
 155              		.cfi_startproc
 156              		@ args = 0, pretend = 0, frame = 0
 157              		@ frame_needed = 0, uses_anonymous_args = 0
 158              		@ link register save eliminated.
 152:Middlewares/ST/STM32_USB_Device_Library/Core/Src/usbd_core.c ****   USBD_StatusTypeDef   status = USBD_OK;
 159              		.loc 1 152 3 view .LVU38
 153:Middlewares/ST/STM32_USB_Device_Library/Core/Src/usbd_core.c ****   if(pclass != 0)
 160              		.loc 1 153 3 view .LVU39
 161              		.loc 1 153 5 is_stmt 0 view .LVU40
 162 0000 19B1     		cbz	r1, .L14
 154:Middlewares/ST/STM32_USB_Device_Library/Core/Src/usbd_core.c ****   {
 155:Middlewares/ST/STM32_USB_Device_Library/Core/Src/usbd_core.c ****     /* link the class to the USB Device handle */
 156:Middlewares/ST/STM32_USB_Device_Library/Core/Src/usbd_core.c ****     pdev->pClass = pclass;
 163              		.loc 1 156 5 is_stmt 1 view .LVU41
 164              		.loc 1 156 18 is_stmt 0 view .LVU42
 165 0002 C0F88C12 		str	r1, [r0, #652]
 157:Middlewares/ST/STM32_USB_Device_Library/Core/Src/usbd_core.c ****     status = USBD_OK;
 166              		.loc 1 157 5 is_stmt 1 view .LVU43
 167              		.loc 1 157 12 is_stmt 0 view .LVU44
 168 0006 0020     		movs	r0, #0
 169              	.LVL11:
 170              		.loc 1 157 12 view .LVU45
 171 0008 7047     		bx	lr
 172              	.LVL12:
 173              	.L14:
 158:Middlewares/ST/STM32_USB_Device_Library/Core/Src/usbd_core.c ****   }
 159:Middlewares/ST/STM32_USB_Device_Library/Core/Src/usbd_core.c ****   else
 160:Middlewares/ST/STM32_USB_Device_Library/Core/Src/usbd_core.c ****   {
 161:Middlewares/ST/STM32_USB_Device_Library/Core/Src/usbd_core.c **** #if (USBD_DEBUG_LEVEL > 1U)
 162:Middlewares/ST/STM32_USB_Device_Library/Core/Src/usbd_core.c ****     USBD_ErrLog("Invalid Class handle");
 163:Middlewares/ST/STM32_USB_Device_Library/Core/Src/usbd_core.c **** #endif
 164:Middlewares/ST/STM32_USB_Device_Library/Core/Src/usbd_core.c ****     status = USBD_FAIL;
 174              		.loc 1 164 12 view .LVU46
 175 000a 0220     		movs	r0, #2
 176              	.LVL13:
 165:Middlewares/ST/STM32_USB_Device_Library/Core/Src/usbd_core.c ****   }
 166:Middlewares/ST/STM32_USB_Device_Library/Core/Src/usbd_core.c **** 
 167:Middlewares/ST/STM32_USB_Device_Library/Core/Src/usbd_core.c ****   return status;
 177              		.loc 1 167 3 is_stmt 1 view .LVU47
 168:Middlewares/ST/STM32_USB_Device_Library/Core/Src/usbd_core.c **** }
ARM GAS  /var/folders/jr/lt9tb7vj2871x9rxdxc0hz4h0000gn/T//cc3ly4vt.s 			page 7


 178              		.loc 1 168 1 is_stmt 0 view .LVU48
 179 000c 7047     		bx	lr
 180              		.cfi_endproc
 181              	.LFE135:
 183              		.section	.text.USBD_Start,"ax",%progbits
 184              		.align	1
 185              		.global	USBD_Start
 186              		.syntax unified
 187              		.thumb
 188              		.thumb_func
 190              	USBD_Start:
 191              	.LVL14:
 192              	.LFB136:
 169:Middlewares/ST/STM32_USB_Device_Library/Core/Src/usbd_core.c **** 
 170:Middlewares/ST/STM32_USB_Device_Library/Core/Src/usbd_core.c **** /**
 171:Middlewares/ST/STM32_USB_Device_Library/Core/Src/usbd_core.c ****   * @brief  USBD_Start
 172:Middlewares/ST/STM32_USB_Device_Library/Core/Src/usbd_core.c ****   *         Start the USB Device Core.
 173:Middlewares/ST/STM32_USB_Device_Library/Core/Src/usbd_core.c ****   * @param  pdev: Device Handle
 174:Middlewares/ST/STM32_USB_Device_Library/Core/Src/usbd_core.c ****   * @retval USBD Status
 175:Middlewares/ST/STM32_USB_Device_Library/Core/Src/usbd_core.c ****   */
 176:Middlewares/ST/STM32_USB_Device_Library/Core/Src/usbd_core.c **** USBD_StatusTypeDef  USBD_Start  (USBD_HandleTypeDef *pdev)
 177:Middlewares/ST/STM32_USB_Device_Library/Core/Src/usbd_core.c **** {
 193              		.loc 1 177 1 is_stmt 1 view -0
 194              		.cfi_startproc
 195              		@ args = 0, pretend = 0, frame = 0
 196              		@ frame_needed = 0, uses_anonymous_args = 0
 197              		.loc 1 177 1 is_stmt 0 view .LVU50
 198 0000 08B5     		push	{r3, lr}
 199              	.LCFI3:
 200              		.cfi_def_cfa_offset 8
 201              		.cfi_offset 3, -8
 202              		.cfi_offset 14, -4
 178:Middlewares/ST/STM32_USB_Device_Library/Core/Src/usbd_core.c **** 
 179:Middlewares/ST/STM32_USB_Device_Library/Core/Src/usbd_core.c ****   /* Start the low level driver  */
 180:Middlewares/ST/STM32_USB_Device_Library/Core/Src/usbd_core.c ****   USBD_LL_Start(pdev);
 203              		.loc 1 180 3 is_stmt 1 view .LVU51
 204 0002 FFF7FEFF 		bl	USBD_LL_Start
 205              	.LVL15:
 181:Middlewares/ST/STM32_USB_Device_Library/Core/Src/usbd_core.c **** 
 182:Middlewares/ST/STM32_USB_Device_Library/Core/Src/usbd_core.c ****   return USBD_OK;
 206              		.loc 1 182 3 view .LVU52
 183:Middlewares/ST/STM32_USB_Device_Library/Core/Src/usbd_core.c **** }
 207              		.loc 1 183 1 is_stmt 0 view .LVU53
 208 0006 0020     		movs	r0, #0
 209 0008 08BD     		pop	{r3, pc}
 210              		.cfi_endproc
 211              	.LFE136:
 213              		.section	.text.USBD_Stop,"ax",%progbits
 214              		.align	1
 215              		.global	USBD_Stop
 216              		.syntax unified
 217              		.thumb
 218              		.thumb_func
 220              	USBD_Stop:
 221              	.LVL16:
 222              	.LFB137:
 184:Middlewares/ST/STM32_USB_Device_Library/Core/Src/usbd_core.c **** 
ARM GAS  /var/folders/jr/lt9tb7vj2871x9rxdxc0hz4h0000gn/T//cc3ly4vt.s 			page 8


 185:Middlewares/ST/STM32_USB_Device_Library/Core/Src/usbd_core.c **** /**
 186:Middlewares/ST/STM32_USB_Device_Library/Core/Src/usbd_core.c ****   * @brief  USBD_Stop
 187:Middlewares/ST/STM32_USB_Device_Library/Core/Src/usbd_core.c ****   *         Stop the USB Device Core.
 188:Middlewares/ST/STM32_USB_Device_Library/Core/Src/usbd_core.c ****   * @param  pdev: Device Handle
 189:Middlewares/ST/STM32_USB_Device_Library/Core/Src/usbd_core.c ****   * @retval USBD Status
 190:Middlewares/ST/STM32_USB_Device_Library/Core/Src/usbd_core.c ****   */
 191:Middlewares/ST/STM32_USB_Device_Library/Core/Src/usbd_core.c **** USBD_StatusTypeDef  USBD_Stop   (USBD_HandleTypeDef *pdev)
 192:Middlewares/ST/STM32_USB_Device_Library/Core/Src/usbd_core.c **** {
 223              		.loc 1 192 1 is_stmt 1 view -0
 224              		.cfi_startproc
 225              		@ args = 0, pretend = 0, frame = 0
 226              		@ frame_needed = 0, uses_anonymous_args = 0
 227              		.loc 1 192 1 is_stmt 0 view .LVU55
 228 0000 10B5     		push	{r4, lr}
 229              	.LCFI4:
 230              		.cfi_def_cfa_offset 8
 231              		.cfi_offset 4, -8
 232              		.cfi_offset 14, -4
 233 0002 0446     		mov	r4, r0
 193:Middlewares/ST/STM32_USB_Device_Library/Core/Src/usbd_core.c ****   /* Free Class Resources */
 194:Middlewares/ST/STM32_USB_Device_Library/Core/Src/usbd_core.c ****   pdev->pClass->DeInit(pdev, (uint8_t)pdev->dev_config);
 234              		.loc 1 194 3 is_stmt 1 view .LVU56
 235              		.loc 1 194 7 is_stmt 0 view .LVU57
 236 0004 D0F88C32 		ldr	r3, [r0, #652]
 237              		.loc 1 194 15 view .LVU58
 238 0008 5B68     		ldr	r3, [r3, #4]
 239              		.loc 1 194 3 view .LVU59
 240 000a 0179     		ldrb	r1, [r0, #4]	@ zero_extendqisi2
 241 000c 9847     		blx	r3
 242              	.LVL17:
 195:Middlewares/ST/STM32_USB_Device_Library/Core/Src/usbd_core.c **** 
 196:Middlewares/ST/STM32_USB_Device_Library/Core/Src/usbd_core.c ****   /* Stop the low level driver  */
 197:Middlewares/ST/STM32_USB_Device_Library/Core/Src/usbd_core.c ****   USBD_LL_Stop(pdev);
 243              		.loc 1 197 3 is_stmt 1 view .LVU60
 244 000e 2046     		mov	r0, r4
 245 0010 FFF7FEFF 		bl	USBD_LL_Stop
 246              	.LVL18:
 198:Middlewares/ST/STM32_USB_Device_Library/Core/Src/usbd_core.c **** 
 199:Middlewares/ST/STM32_USB_Device_Library/Core/Src/usbd_core.c ****   return USBD_OK;
 247              		.loc 1 199 3 view .LVU61
 200:Middlewares/ST/STM32_USB_Device_Library/Core/Src/usbd_core.c **** }
 248              		.loc 1 200 1 is_stmt 0 view .LVU62
 249 0014 0020     		movs	r0, #0
 250 0016 10BD     		pop	{r4, pc}
 251              		.loc 1 200 1 view .LVU63
 252              		.cfi_endproc
 253              	.LFE137:
 255              		.section	.text.USBD_RunTestMode,"ax",%progbits
 256              		.align	1
 257              		.global	USBD_RunTestMode
 258              		.syntax unified
 259              		.thumb
 260              		.thumb_func
 262              	USBD_RunTestMode:
 263              	.LVL19:
 264              	.LFB138:
 201:Middlewares/ST/STM32_USB_Device_Library/Core/Src/usbd_core.c **** 
ARM GAS  /var/folders/jr/lt9tb7vj2871x9rxdxc0hz4h0000gn/T//cc3ly4vt.s 			page 9


 202:Middlewares/ST/STM32_USB_Device_Library/Core/Src/usbd_core.c **** /**
 203:Middlewares/ST/STM32_USB_Device_Library/Core/Src/usbd_core.c **** * @brief  USBD_RunTestMode
 204:Middlewares/ST/STM32_USB_Device_Library/Core/Src/usbd_core.c **** *         Launch test mode process
 205:Middlewares/ST/STM32_USB_Device_Library/Core/Src/usbd_core.c **** * @param  pdev: device instance
 206:Middlewares/ST/STM32_USB_Device_Library/Core/Src/usbd_core.c **** * @retval status
 207:Middlewares/ST/STM32_USB_Device_Library/Core/Src/usbd_core.c **** */
 208:Middlewares/ST/STM32_USB_Device_Library/Core/Src/usbd_core.c **** USBD_StatusTypeDef  USBD_RunTestMode (USBD_HandleTypeDef  *pdev)
 209:Middlewares/ST/STM32_USB_Device_Library/Core/Src/usbd_core.c **** {
 265              		.loc 1 209 1 is_stmt 1 view -0
 266              		.cfi_startproc
 267              		@ args = 0, pretend = 0, frame = 0
 268              		@ frame_needed = 0, uses_anonymous_args = 0
 269              		@ link register save eliminated.
 210:Middlewares/ST/STM32_USB_Device_Library/Core/Src/usbd_core.c ****   /* Prevent unused argument compilation warning */
 211:Middlewares/ST/STM32_USB_Device_Library/Core/Src/usbd_core.c ****   UNUSED(pdev);
 270              		.loc 1 211 3 view .LVU65
 212:Middlewares/ST/STM32_USB_Device_Library/Core/Src/usbd_core.c **** 
 213:Middlewares/ST/STM32_USB_Device_Library/Core/Src/usbd_core.c ****   return USBD_OK;
 271              		.loc 1 213 3 view .LVU66
 214:Middlewares/ST/STM32_USB_Device_Library/Core/Src/usbd_core.c **** }
 272              		.loc 1 214 1 is_stmt 0 view .LVU67
 273 0000 0020     		movs	r0, #0
 274              	.LVL20:
 275              		.loc 1 214 1 view .LVU68
 276 0002 7047     		bx	lr
 277              		.cfi_endproc
 278              	.LFE138:
 280              		.section	.text.USBD_SetClassConfig,"ax",%progbits
 281              		.align	1
 282              		.global	USBD_SetClassConfig
 283              		.syntax unified
 284              		.thumb
 285              		.thumb_func
 287              	USBD_SetClassConfig:
 288              	.LVL21:
 289              	.LFB139:
 215:Middlewares/ST/STM32_USB_Device_Library/Core/Src/usbd_core.c **** 
 216:Middlewares/ST/STM32_USB_Device_Library/Core/Src/usbd_core.c **** /**
 217:Middlewares/ST/STM32_USB_Device_Library/Core/Src/usbd_core.c **** * @brief  USBD_SetClassConfig
 218:Middlewares/ST/STM32_USB_Device_Library/Core/Src/usbd_core.c **** *        Configure device and start the interface
 219:Middlewares/ST/STM32_USB_Device_Library/Core/Src/usbd_core.c **** * @param  pdev: device instance
 220:Middlewares/ST/STM32_USB_Device_Library/Core/Src/usbd_core.c **** * @param  cfgidx: configuration index
 221:Middlewares/ST/STM32_USB_Device_Library/Core/Src/usbd_core.c **** * @retval status
 222:Middlewares/ST/STM32_USB_Device_Library/Core/Src/usbd_core.c **** */
 223:Middlewares/ST/STM32_USB_Device_Library/Core/Src/usbd_core.c **** 
 224:Middlewares/ST/STM32_USB_Device_Library/Core/Src/usbd_core.c **** USBD_StatusTypeDef USBD_SetClassConfig(USBD_HandleTypeDef  *pdev, uint8_t cfgidx)
 225:Middlewares/ST/STM32_USB_Device_Library/Core/Src/usbd_core.c **** {
 290              		.loc 1 225 1 is_stmt 1 view -0
 291              		.cfi_startproc
 292              		@ args = 0, pretend = 0, frame = 0
 293              		@ frame_needed = 0, uses_anonymous_args = 0
 294              		.loc 1 225 1 is_stmt 0 view .LVU70
 295 0000 08B5     		push	{r3, lr}
 296              	.LCFI5:
 297              		.cfi_def_cfa_offset 8
 298              		.cfi_offset 3, -8
 299              		.cfi_offset 14, -4
ARM GAS  /var/folders/jr/lt9tb7vj2871x9rxdxc0hz4h0000gn/T//cc3ly4vt.s 			page 10


 226:Middlewares/ST/STM32_USB_Device_Library/Core/Src/usbd_core.c ****   USBD_StatusTypeDef   ret = USBD_FAIL;
 300              		.loc 1 226 3 is_stmt 1 view .LVU71
 301              	.LVL22:
 227:Middlewares/ST/STM32_USB_Device_Library/Core/Src/usbd_core.c **** 
 228:Middlewares/ST/STM32_USB_Device_Library/Core/Src/usbd_core.c ****   if(pdev->pClass != NULL)
 302              		.loc 1 228 3 view .LVU72
 303              		.loc 1 228 10 is_stmt 0 view .LVU73
 304 0002 D0F88C32 		ldr	r3, [r0, #652]
 305              		.loc 1 228 5 view .LVU74
 306 0006 2BB1     		cbz	r3, .L22
 229:Middlewares/ST/STM32_USB_Device_Library/Core/Src/usbd_core.c ****   {
 230:Middlewares/ST/STM32_USB_Device_Library/Core/Src/usbd_core.c ****     /* Set configuration  and Start the Class*/
 231:Middlewares/ST/STM32_USB_Device_Library/Core/Src/usbd_core.c ****     if(pdev->pClass->Init(pdev, cfgidx) == 0U)
 307              		.loc 1 231 5 is_stmt 1 view .LVU75
 308              		.loc 1 231 20 is_stmt 0 view .LVU76
 309 0008 1B68     		ldr	r3, [r3]
 310              		.loc 1 231 8 view .LVU77
 311 000a 9847     		blx	r3
 312              	.LVL23:
 313              		.loc 1 231 7 view .LVU78
 314 000c 00B9     		cbnz	r0, .L24
 315              	.L21:
 316              	.LVL24:
 232:Middlewares/ST/STM32_USB_Device_Library/Core/Src/usbd_core.c ****     {
 233:Middlewares/ST/STM32_USB_Device_Library/Core/Src/usbd_core.c ****       ret = USBD_OK;
 234:Middlewares/ST/STM32_USB_Device_Library/Core/Src/usbd_core.c ****     }
 235:Middlewares/ST/STM32_USB_Device_Library/Core/Src/usbd_core.c ****   }
 236:Middlewares/ST/STM32_USB_Device_Library/Core/Src/usbd_core.c **** 
 237:Middlewares/ST/STM32_USB_Device_Library/Core/Src/usbd_core.c ****   return ret;
 317              		.loc 1 237 3 is_stmt 1 view .LVU79
 238:Middlewares/ST/STM32_USB_Device_Library/Core/Src/usbd_core.c **** }
 318              		.loc 1 238 1 is_stmt 0 view .LVU80
 319 000e 08BD     		pop	{r3, pc}
 320              	.LVL25:
 321              	.L24:
 226:Middlewares/ST/STM32_USB_Device_Library/Core/Src/usbd_core.c **** 
 322              		.loc 1 226 24 view .LVU81
 323 0010 0220     		movs	r0, #2
 324 0012 FCE7     		b	.L21
 325              	.LVL26:
 326              	.L22:
 226:Middlewares/ST/STM32_USB_Device_Library/Core/Src/usbd_core.c **** 
 327              		.loc 1 226 24 view .LVU82
 328 0014 0220     		movs	r0, #2
 329              	.LVL27:
 226:Middlewares/ST/STM32_USB_Device_Library/Core/Src/usbd_core.c **** 
 330              		.loc 1 226 24 view .LVU83
 331 0016 FAE7     		b	.L21
 332              		.cfi_endproc
 333              	.LFE139:
 335              		.section	.text.USBD_ClrClassConfig,"ax",%progbits
 336              		.align	1
 337              		.global	USBD_ClrClassConfig
 338              		.syntax unified
 339              		.thumb
 340              		.thumb_func
 342              	USBD_ClrClassConfig:
ARM GAS  /var/folders/jr/lt9tb7vj2871x9rxdxc0hz4h0000gn/T//cc3ly4vt.s 			page 11


 343              	.LVL28:
 344              	.LFB140:
 239:Middlewares/ST/STM32_USB_Device_Library/Core/Src/usbd_core.c **** 
 240:Middlewares/ST/STM32_USB_Device_Library/Core/Src/usbd_core.c **** /**
 241:Middlewares/ST/STM32_USB_Device_Library/Core/Src/usbd_core.c **** * @brief  USBD_ClrClassConfig
 242:Middlewares/ST/STM32_USB_Device_Library/Core/Src/usbd_core.c **** *         Clear current configuration
 243:Middlewares/ST/STM32_USB_Device_Library/Core/Src/usbd_core.c **** * @param  pdev: device instance
 244:Middlewares/ST/STM32_USB_Device_Library/Core/Src/usbd_core.c **** * @param  cfgidx: configuration index
 245:Middlewares/ST/STM32_USB_Device_Library/Core/Src/usbd_core.c **** * @retval status: USBD_StatusTypeDef
 246:Middlewares/ST/STM32_USB_Device_Library/Core/Src/usbd_core.c **** */
 247:Middlewares/ST/STM32_USB_Device_Library/Core/Src/usbd_core.c **** USBD_StatusTypeDef USBD_ClrClassConfig(USBD_HandleTypeDef  *pdev, uint8_t cfgidx)
 248:Middlewares/ST/STM32_USB_Device_Library/Core/Src/usbd_core.c **** {
 345              		.loc 1 248 1 is_stmt 1 view -0
 346              		.cfi_startproc
 347              		@ args = 0, pretend = 0, frame = 0
 348              		@ frame_needed = 0, uses_anonymous_args = 0
 349              		.loc 1 248 1 is_stmt 0 view .LVU85
 350 0000 08B5     		push	{r3, lr}
 351              	.LCFI6:
 352              		.cfi_def_cfa_offset 8
 353              		.cfi_offset 3, -8
 354              		.cfi_offset 14, -4
 249:Middlewares/ST/STM32_USB_Device_Library/Core/Src/usbd_core.c ****   /* Clear configuration  and De-initialize the Class process*/
 250:Middlewares/ST/STM32_USB_Device_Library/Core/Src/usbd_core.c ****   pdev->pClass->DeInit(pdev, cfgidx);
 355              		.loc 1 250 3 is_stmt 1 view .LVU86
 356              		.loc 1 250 7 is_stmt 0 view .LVU87
 357 0002 D0F88C32 		ldr	r3, [r0, #652]
 358              		.loc 1 250 15 view .LVU88
 359 0006 5B68     		ldr	r3, [r3, #4]
 360              		.loc 1 250 3 view .LVU89
 361 0008 9847     		blx	r3
 362              	.LVL29:
 251:Middlewares/ST/STM32_USB_Device_Library/Core/Src/usbd_core.c ****   return USBD_OK;
 363              		.loc 1 251 3 is_stmt 1 view .LVU90
 252:Middlewares/ST/STM32_USB_Device_Library/Core/Src/usbd_core.c **** }
 364              		.loc 1 252 1 is_stmt 0 view .LVU91
 365 000a 0020     		movs	r0, #0
 366 000c 08BD     		pop	{r3, pc}
 367              		.cfi_endproc
 368              	.LFE140:
 370              		.section	.text.USBD_LL_SetupStage,"ax",%progbits
 371              		.align	1
 372              		.global	USBD_LL_SetupStage
 373              		.syntax unified
 374              		.thumb
 375              		.thumb_func
 377              	USBD_LL_SetupStage:
 378              	.LVL30:
 379              	.LFB141:
 253:Middlewares/ST/STM32_USB_Device_Library/Core/Src/usbd_core.c **** 
 254:Middlewares/ST/STM32_USB_Device_Library/Core/Src/usbd_core.c **** 
 255:Middlewares/ST/STM32_USB_Device_Library/Core/Src/usbd_core.c **** /**
 256:Middlewares/ST/STM32_USB_Device_Library/Core/Src/usbd_core.c **** * @brief  USBD_SetupStage
 257:Middlewares/ST/STM32_USB_Device_Library/Core/Src/usbd_core.c **** *         Handle the setup stage
 258:Middlewares/ST/STM32_USB_Device_Library/Core/Src/usbd_core.c **** * @param  pdev: device instance
 259:Middlewares/ST/STM32_USB_Device_Library/Core/Src/usbd_core.c **** * @retval status
 260:Middlewares/ST/STM32_USB_Device_Library/Core/Src/usbd_core.c **** */
ARM GAS  /var/folders/jr/lt9tb7vj2871x9rxdxc0hz4h0000gn/T//cc3ly4vt.s 			page 12


 261:Middlewares/ST/STM32_USB_Device_Library/Core/Src/usbd_core.c **** USBD_StatusTypeDef USBD_LL_SetupStage(USBD_HandleTypeDef *pdev, uint8_t *psetup)
 262:Middlewares/ST/STM32_USB_Device_Library/Core/Src/usbd_core.c **** {
 380              		.loc 1 262 1 is_stmt 1 view -0
 381              		.cfi_startproc
 382              		@ args = 0, pretend = 0, frame = 0
 383              		@ frame_needed = 0, uses_anonymous_args = 0
 384              		.loc 1 262 1 is_stmt 0 view .LVU93
 385 0000 38B5     		push	{r3, r4, r5, lr}
 386              	.LCFI7:
 387              		.cfi_def_cfa_offset 16
 388              		.cfi_offset 3, -16
 389              		.cfi_offset 4, -12
 390              		.cfi_offset 5, -8
 391              		.cfi_offset 14, -4
 392 0002 0446     		mov	r4, r0
 263:Middlewares/ST/STM32_USB_Device_Library/Core/Src/usbd_core.c ****   USBD_ParseSetupRequest(&pdev->request, psetup);
 393              		.loc 1 263 3 is_stmt 1 view .LVU94
 394 0004 00F52075 		add	r5, r0, #640
 395 0008 2846     		mov	r0, r5
 396              	.LVL31:
 397              		.loc 1 263 3 is_stmt 0 view .LVU95
 398 000a FFF7FEFF 		bl	USBD_ParseSetupRequest
 399              	.LVL32:
 264:Middlewares/ST/STM32_USB_Device_Library/Core/Src/usbd_core.c **** 
 265:Middlewares/ST/STM32_USB_Device_Library/Core/Src/usbd_core.c ****   pdev->ep0_state = USBD_EP0_SETUP;
 400              		.loc 1 265 3 is_stmt 1 view .LVU96
 401              		.loc 1 265 19 is_stmt 0 view .LVU97
 402 000e 0123     		movs	r3, #1
 403 0010 C4F86C32 		str	r3, [r4, #620]
 266:Middlewares/ST/STM32_USB_Device_Library/Core/Src/usbd_core.c **** 
 267:Middlewares/ST/STM32_USB_Device_Library/Core/Src/usbd_core.c ****   pdev->ep0_data_len = pdev->request.wLength;
 404              		.loc 1 267 3 is_stmt 1 view .LVU98
 405              		.loc 1 267 37 is_stmt 0 view .LVU99
 406 0014 B4F88632 		ldrh	r3, [r4, #646]
 407              		.loc 1 267 22 view .LVU100
 408 0018 C4F87032 		str	r3, [r4, #624]
 268:Middlewares/ST/STM32_USB_Device_Library/Core/Src/usbd_core.c **** 
 269:Middlewares/ST/STM32_USB_Device_Library/Core/Src/usbd_core.c ****   switch (pdev->request.bmRequest & 0x1FU)
 409              		.loc 1 269 3 is_stmt 1 view .LVU101
 410              		.loc 1 269 24 is_stmt 0 view .LVU102
 411 001c 94F88012 		ldrb	r1, [r4, #640]	@ zero_extendqisi2
 412 0020 01F01F03 		and	r3, r1, #31
 413              		.loc 1 269 3 view .LVU103
 414 0024 012B     		cmp	r3, #1
 415 0026 0ED0     		beq	.L28
 416 0028 022B     		cmp	r3, #2
 417 002a 11D0     		beq	.L29
 418 002c 2BB1     		cbz	r3, .L33
 270:Middlewares/ST/STM32_USB_Device_Library/Core/Src/usbd_core.c ****   {
 271:Middlewares/ST/STM32_USB_Device_Library/Core/Src/usbd_core.c ****   case USB_REQ_RECIPIENT_DEVICE:
 272:Middlewares/ST/STM32_USB_Device_Library/Core/Src/usbd_core.c ****     USBD_StdDevReq (pdev, &pdev->request);
 273:Middlewares/ST/STM32_USB_Device_Library/Core/Src/usbd_core.c ****     break;
 274:Middlewares/ST/STM32_USB_Device_Library/Core/Src/usbd_core.c **** 
 275:Middlewares/ST/STM32_USB_Device_Library/Core/Src/usbd_core.c ****   case USB_REQ_RECIPIENT_INTERFACE:
 276:Middlewares/ST/STM32_USB_Device_Library/Core/Src/usbd_core.c ****     USBD_StdItfReq(pdev, &pdev->request);
 277:Middlewares/ST/STM32_USB_Device_Library/Core/Src/usbd_core.c ****     break;
 278:Middlewares/ST/STM32_USB_Device_Library/Core/Src/usbd_core.c **** 
ARM GAS  /var/folders/jr/lt9tb7vj2871x9rxdxc0hz4h0000gn/T//cc3ly4vt.s 			page 13


 279:Middlewares/ST/STM32_USB_Device_Library/Core/Src/usbd_core.c ****   case USB_REQ_RECIPIENT_ENDPOINT:
 280:Middlewares/ST/STM32_USB_Device_Library/Core/Src/usbd_core.c ****     USBD_StdEPReq(pdev, &pdev->request);
 281:Middlewares/ST/STM32_USB_Device_Library/Core/Src/usbd_core.c ****     break;
 282:Middlewares/ST/STM32_USB_Device_Library/Core/Src/usbd_core.c **** 
 283:Middlewares/ST/STM32_USB_Device_Library/Core/Src/usbd_core.c ****   default:
 284:Middlewares/ST/STM32_USB_Device_Library/Core/Src/usbd_core.c ****     USBD_LL_StallEP(pdev, (pdev->request.bmRequest & 0x80U));
 419              		.loc 1 284 5 is_stmt 1 view .LVU104
 420 002e 01F08001 		and	r1, r1, #128
 421 0032 2046     		mov	r0, r4
 422 0034 FFF7FEFF 		bl	USBD_LL_StallEP
 423              	.LVL33:
 285:Middlewares/ST/STM32_USB_Device_Library/Core/Src/usbd_core.c ****     break;
 424              		.loc 1 285 5 view .LVU105
 425 0038 03E0     		b	.L31
 426              	.L33:
 272:Middlewares/ST/STM32_USB_Device_Library/Core/Src/usbd_core.c ****     break;
 427              		.loc 1 272 5 view .LVU106
 428 003a 2946     		mov	r1, r5
 429 003c 2046     		mov	r0, r4
 430 003e FFF7FEFF 		bl	USBD_StdDevReq
 431              	.LVL34:
 273:Middlewares/ST/STM32_USB_Device_Library/Core/Src/usbd_core.c **** 
 432              		.loc 1 273 5 view .LVU107
 433              	.L31:
 286:Middlewares/ST/STM32_USB_Device_Library/Core/Src/usbd_core.c ****   }
 287:Middlewares/ST/STM32_USB_Device_Library/Core/Src/usbd_core.c **** 
 288:Middlewares/ST/STM32_USB_Device_Library/Core/Src/usbd_core.c ****   return USBD_OK;
 434              		.loc 1 288 3 view .LVU108
 289:Middlewares/ST/STM32_USB_Device_Library/Core/Src/usbd_core.c **** }
 435              		.loc 1 289 1 is_stmt 0 view .LVU109
 436 0042 0020     		movs	r0, #0
 437 0044 38BD     		pop	{r3, r4, r5, pc}
 438              	.LVL35:
 439              	.L28:
 276:Middlewares/ST/STM32_USB_Device_Library/Core/Src/usbd_core.c ****     break;
 440              		.loc 1 276 5 is_stmt 1 view .LVU110
 441 0046 2946     		mov	r1, r5
 442 0048 2046     		mov	r0, r4
 443 004a FFF7FEFF 		bl	USBD_StdItfReq
 444              	.LVL36:
 277:Middlewares/ST/STM32_USB_Device_Library/Core/Src/usbd_core.c **** 
 445              		.loc 1 277 5 view .LVU111
 446 004e F8E7     		b	.L31
 447              	.L29:
 280:Middlewares/ST/STM32_USB_Device_Library/Core/Src/usbd_core.c ****     break;
 448              		.loc 1 280 5 view .LVU112
 449 0050 2946     		mov	r1, r5
 450 0052 2046     		mov	r0, r4
 451 0054 FFF7FEFF 		bl	USBD_StdEPReq
 452              	.LVL37:
 281:Middlewares/ST/STM32_USB_Device_Library/Core/Src/usbd_core.c **** 
 453              		.loc 1 281 5 view .LVU113
 454 0058 F3E7     		b	.L31
 455              		.cfi_endproc
 456              	.LFE141:
 458              		.section	.text.USBD_LL_DataOutStage,"ax",%progbits
 459              		.align	1
ARM GAS  /var/folders/jr/lt9tb7vj2871x9rxdxc0hz4h0000gn/T//cc3ly4vt.s 			page 14


 460              		.global	USBD_LL_DataOutStage
 461              		.syntax unified
 462              		.thumb
 463              		.thumb_func
 465              	USBD_LL_DataOutStage:
 466              	.LVL38:
 467              	.LFB142:
 290:Middlewares/ST/STM32_USB_Device_Library/Core/Src/usbd_core.c **** 
 291:Middlewares/ST/STM32_USB_Device_Library/Core/Src/usbd_core.c **** /**
 292:Middlewares/ST/STM32_USB_Device_Library/Core/Src/usbd_core.c **** * @brief  USBD_DataOutStage
 293:Middlewares/ST/STM32_USB_Device_Library/Core/Src/usbd_core.c **** *         Handle data OUT stage
 294:Middlewares/ST/STM32_USB_Device_Library/Core/Src/usbd_core.c **** * @param  pdev: device instance
 295:Middlewares/ST/STM32_USB_Device_Library/Core/Src/usbd_core.c **** * @param  epnum: endpoint index
 296:Middlewares/ST/STM32_USB_Device_Library/Core/Src/usbd_core.c **** * @retval status
 297:Middlewares/ST/STM32_USB_Device_Library/Core/Src/usbd_core.c **** */
 298:Middlewares/ST/STM32_USB_Device_Library/Core/Src/usbd_core.c **** USBD_StatusTypeDef USBD_LL_DataOutStage(USBD_HandleTypeDef *pdev,
 299:Middlewares/ST/STM32_USB_Device_Library/Core/Src/usbd_core.c ****                                         uint8_t epnum, uint8_t *pdata)
 300:Middlewares/ST/STM32_USB_Device_Library/Core/Src/usbd_core.c **** {
 468              		.loc 1 300 1 view -0
 469              		.cfi_startproc
 470              		@ args = 0, pretend = 0, frame = 0
 471              		@ frame_needed = 0, uses_anonymous_args = 0
 472              		.loc 1 300 1 is_stmt 0 view .LVU115
 473 0000 38B5     		push	{r3, r4, r5, lr}
 474              	.LCFI8:
 475              		.cfi_def_cfa_offset 16
 476              		.cfi_offset 3, -16
 477              		.cfi_offset 4, -12
 478              		.cfi_offset 5, -8
 479              		.cfi_offset 14, -4
 480 0002 0446     		mov	r4, r0
 301:Middlewares/ST/STM32_USB_Device_Library/Core/Src/usbd_core.c ****   USBD_EndpointTypeDef    *pep;
 481              		.loc 1 301 3 is_stmt 1 view .LVU116
 302:Middlewares/ST/STM32_USB_Device_Library/Core/Src/usbd_core.c **** 
 303:Middlewares/ST/STM32_USB_Device_Library/Core/Src/usbd_core.c ****   if(epnum == 0U)
 482              		.loc 1 303 3 view .LVU117
 483              		.loc 1 303 5 is_stmt 0 view .LVU118
 484 0004 0D46     		mov	r5, r1
 485 0006 91BB     		cbnz	r1, .L35
 486 0008 1346     		mov	r3, r2
 304:Middlewares/ST/STM32_USB_Device_Library/Core/Src/usbd_core.c ****   {
 305:Middlewares/ST/STM32_USB_Device_Library/Core/Src/usbd_core.c ****     pep = &pdev->ep_out[0];
 487              		.loc 1 305 5 is_stmt 1 view .LVU119
 488              	.LVL39:
 306:Middlewares/ST/STM32_USB_Device_Library/Core/Src/usbd_core.c **** 
 307:Middlewares/ST/STM32_USB_Device_Library/Core/Src/usbd_core.c ****     if ( pdev->ep0_state == USBD_EP0_DATA_OUT)
 489              		.loc 1 307 5 view .LVU120
 490              		.loc 1 307 14 is_stmt 0 view .LVU121
 491 000a D0F86C22 		ldr	r2, [r0, #620]
 492              	.LVL40:
 493              		.loc 1 307 8 view .LVU122
 494 000e 032A     		cmp	r2, #3
 495 0010 03D0     		beq	.L46
 308:Middlewares/ST/STM32_USB_Device_Library/Core/Src/usbd_core.c ****     {
 309:Middlewares/ST/STM32_USB_Device_Library/Core/Src/usbd_core.c ****       if(pep->rem_length > pep->maxpacket)
 310:Middlewares/ST/STM32_USB_Device_Library/Core/Src/usbd_core.c ****       {
 311:Middlewares/ST/STM32_USB_Device_Library/Core/Src/usbd_core.c ****         pep->rem_length -=  pep->maxpacket;
ARM GAS  /var/folders/jr/lt9tb7vj2871x9rxdxc0hz4h0000gn/T//cc3ly4vt.s 			page 15


 312:Middlewares/ST/STM32_USB_Device_Library/Core/Src/usbd_core.c **** 
 313:Middlewares/ST/STM32_USB_Device_Library/Core/Src/usbd_core.c ****         USBD_CtlContinueRx (pdev,
 314:Middlewares/ST/STM32_USB_Device_Library/Core/Src/usbd_core.c ****                             pdata,
 315:Middlewares/ST/STM32_USB_Device_Library/Core/Src/usbd_core.c ****                             (uint16_t)MIN(pep->rem_length, pep->maxpacket));
 316:Middlewares/ST/STM32_USB_Device_Library/Core/Src/usbd_core.c ****       }
 317:Middlewares/ST/STM32_USB_Device_Library/Core/Src/usbd_core.c ****       else
 318:Middlewares/ST/STM32_USB_Device_Library/Core/Src/usbd_core.c ****       {
 319:Middlewares/ST/STM32_USB_Device_Library/Core/Src/usbd_core.c ****         if((pdev->pClass->EP0_RxReady != NULL)&&
 320:Middlewares/ST/STM32_USB_Device_Library/Core/Src/usbd_core.c ****            (pdev->dev_state == USBD_STATE_CONFIGURED))
 321:Middlewares/ST/STM32_USB_Device_Library/Core/Src/usbd_core.c ****         {
 322:Middlewares/ST/STM32_USB_Device_Library/Core/Src/usbd_core.c ****           pdev->pClass->EP0_RxReady(pdev);
 323:Middlewares/ST/STM32_USB_Device_Library/Core/Src/usbd_core.c ****         }
 324:Middlewares/ST/STM32_USB_Device_Library/Core/Src/usbd_core.c ****         USBD_CtlSendStatus(pdev);
 325:Middlewares/ST/STM32_USB_Device_Library/Core/Src/usbd_core.c ****       }
 326:Middlewares/ST/STM32_USB_Device_Library/Core/Src/usbd_core.c ****     }
 327:Middlewares/ST/STM32_USB_Device_Library/Core/Src/usbd_core.c ****     else
 328:Middlewares/ST/STM32_USB_Device_Library/Core/Src/usbd_core.c ****     {
 329:Middlewares/ST/STM32_USB_Device_Library/Core/Src/usbd_core.c ****       if (pdev->ep0_state == USBD_EP0_STATUS_OUT)
 496              		.loc 1 329 7 is_stmt 1 view .LVU123
 497              		.loc 1 329 10 is_stmt 0 view .LVU124
 498 0012 052A     		cmp	r2, #5
 499 0014 24D0     		beq	.L47
 330:Middlewares/ST/STM32_USB_Device_Library/Core/Src/usbd_core.c ****       {
 331:Middlewares/ST/STM32_USB_Device_Library/Core/Src/usbd_core.c ****         /*
 332:Middlewares/ST/STM32_USB_Device_Library/Core/Src/usbd_core.c ****          * STATUS PHASE completed, update ep0_state to idle
 333:Middlewares/ST/STM32_USB_Device_Library/Core/Src/usbd_core.c ****          */
 334:Middlewares/ST/STM32_USB_Device_Library/Core/Src/usbd_core.c ****         pdev->ep0_state = USBD_EP0_IDLE;
 335:Middlewares/ST/STM32_USB_Device_Library/Core/Src/usbd_core.c ****         USBD_LL_StallEP(pdev, 0U);
 336:Middlewares/ST/STM32_USB_Device_Library/Core/Src/usbd_core.c ****       }
 337:Middlewares/ST/STM32_USB_Device_Library/Core/Src/usbd_core.c ****     }
 338:Middlewares/ST/STM32_USB_Device_Library/Core/Src/usbd_core.c ****   }
 339:Middlewares/ST/STM32_USB_Device_Library/Core/Src/usbd_core.c ****   else if((pdev->pClass->DataOut != NULL) &&
 340:Middlewares/ST/STM32_USB_Device_Library/Core/Src/usbd_core.c ****           (pdev->dev_state == USBD_STATE_CONFIGURED))
 341:Middlewares/ST/STM32_USB_Device_Library/Core/Src/usbd_core.c ****   {
 342:Middlewares/ST/STM32_USB_Device_Library/Core/Src/usbd_core.c ****     pdev->pClass->DataOut(pdev, epnum);
 343:Middlewares/ST/STM32_USB_Device_Library/Core/Src/usbd_core.c ****   }
 344:Middlewares/ST/STM32_USB_Device_Library/Core/Src/usbd_core.c ****   else
 345:Middlewares/ST/STM32_USB_Device_Library/Core/Src/usbd_core.c ****   {
 346:Middlewares/ST/STM32_USB_Device_Library/Core/Src/usbd_core.c ****     /* should never be in this condition */
 347:Middlewares/ST/STM32_USB_Device_Library/Core/Src/usbd_core.c ****     return USBD_FAIL;
 348:Middlewares/ST/STM32_USB_Device_Library/Core/Src/usbd_core.c ****   }
 349:Middlewares/ST/STM32_USB_Device_Library/Core/Src/usbd_core.c **** 
 350:Middlewares/ST/STM32_USB_Device_Library/Core/Src/usbd_core.c ****   return USBD_OK;
 500              		.loc 1 350 10 view .LVU125
 501 0016 0846     		mov	r0, r1
 502              	.LVL41:
 503              		.loc 1 350 10 view .LVU126
 504 0018 33E0     		b	.L40
 505              	.LVL42:
 506              	.L46:
 309:Middlewares/ST/STM32_USB_Device_Library/Core/Src/usbd_core.c ****       {
 507              		.loc 1 309 7 is_stmt 1 view .LVU127
 309:Middlewares/ST/STM32_USB_Device_Library/Core/Src/usbd_core.c ****       {
 508              		.loc 1 309 13 is_stmt 0 view .LVU128
 509 001a D0F84C11 		ldr	r1, [r0, #332]
 510              	.LVL43:
 309:Middlewares/ST/STM32_USB_Device_Library/Core/Src/usbd_core.c ****       {
ARM GAS  /var/folders/jr/lt9tb7vj2871x9rxdxc0hz4h0000gn/T//cc3ly4vt.s 			page 16


 511              		.loc 1 309 31 view .LVU129
 512 001e D0F85021 		ldr	r2, [r0, #336]
 309:Middlewares/ST/STM32_USB_Device_Library/Core/Src/usbd_core.c ****       {
 513              		.loc 1 309 9 view .LVU130
 514 0022 9142     		cmp	r1, r2
 515 0024 0DD9     		bls	.L37
 311:Middlewares/ST/STM32_USB_Device_Library/Core/Src/usbd_core.c **** 
 516              		.loc 1 311 9 is_stmt 1 view .LVU131
 311:Middlewares/ST/STM32_USB_Device_Library/Core/Src/usbd_core.c **** 
 517              		.loc 1 311 25 is_stmt 0 view .LVU132
 518 0026 891A     		subs	r1, r1, r2
 519 0028 C0F84C11 		str	r1, [r0, #332]
 313:Middlewares/ST/STM32_USB_Device_Library/Core/Src/usbd_core.c ****                             pdata,
 520              		.loc 1 313 9 is_stmt 1 view .LVU133
 521 002c 8A42     		cmp	r2, r1
 522 002e 06D9     		bls	.L38
 313:Middlewares/ST/STM32_USB_Device_Library/Core/Src/usbd_core.c ****                             pdata,
 523              		.loc 1 313 9 is_stmt 0 discriminator 1 view .LVU134
 524 0030 8AB2     		uxth	r2, r1
 525              	.L39:
 313:Middlewares/ST/STM32_USB_Device_Library/Core/Src/usbd_core.c ****                             pdata,
 526              		.loc 1 313 9 discriminator 4 view .LVU135
 527 0032 1946     		mov	r1, r3
 528 0034 2046     		mov	r0, r4
 529              	.LVL44:
 313:Middlewares/ST/STM32_USB_Device_Library/Core/Src/usbd_core.c ****                             pdata,
 530              		.loc 1 313 9 discriminator 4 view .LVU136
 531 0036 FFF7FEFF 		bl	USBD_CtlContinueRx
 532              	.LVL45:
 533              		.loc 1 350 10 discriminator 4 view .LVU137
 534 003a 2846     		mov	r0, r5
 535 003c 21E0     		b	.L40
 536              	.LVL46:
 537              	.L38:
 313:Middlewares/ST/STM32_USB_Device_Library/Core/Src/usbd_core.c ****                             pdata,
 538              		.loc 1 313 9 discriminator 2 view .LVU138
 539 003e 92B2     		uxth	r2, r2
 540 0040 F7E7     		b	.L39
 541              	.L37:
 319:Middlewares/ST/STM32_USB_Device_Library/Core/Src/usbd_core.c ****            (pdev->dev_state == USBD_STATE_CONFIGURED))
 542              		.loc 1 319 9 is_stmt 1 view .LVU139
 319:Middlewares/ST/STM32_USB_Device_Library/Core/Src/usbd_core.c ****            (pdev->dev_state == USBD_STATE_CONFIGURED))
 543              		.loc 1 319 17 is_stmt 0 view .LVU140
 544 0042 D0F88C32 		ldr	r3, [r0, #652]
 545              	.LVL47:
 319:Middlewares/ST/STM32_USB_Device_Library/Core/Src/usbd_core.c ****            (pdev->dev_state == USBD_STATE_CONFIGURED))
 546              		.loc 1 319 25 view .LVU141
 547 0046 1B69     		ldr	r3, [r3, #16]
 319:Middlewares/ST/STM32_USB_Device_Library/Core/Src/usbd_core.c ****            (pdev->dev_state == USBD_STATE_CONFIGURED))
 548              		.loc 1 319 11 view .LVU142
 549 0048 1BB1     		cbz	r3, .L41
 320:Middlewares/ST/STM32_USB_Device_Library/Core/Src/usbd_core.c ****         {
 550              		.loc 1 320 17 discriminator 1 view .LVU143
 551 004a 90F87422 		ldrb	r2, [r0, #628]	@ zero_extendqisi2
 319:Middlewares/ST/STM32_USB_Device_Library/Core/Src/usbd_core.c ****            (pdev->dev_state == USBD_STATE_CONFIGURED))
 552              		.loc 1 319 47 discriminator 1 view .LVU144
 553 004e 032A     		cmp	r2, #3
ARM GAS  /var/folders/jr/lt9tb7vj2871x9rxdxc0hz4h0000gn/T//cc3ly4vt.s 			page 17


 554 0050 04D0     		beq	.L48
 555              	.LVL48:
 556              	.L41:
 324:Middlewares/ST/STM32_USB_Device_Library/Core/Src/usbd_core.c ****       }
 557              		.loc 1 324 9 is_stmt 1 view .LVU145
 558 0052 2046     		mov	r0, r4
 559 0054 FFF7FEFF 		bl	USBD_CtlSendStatus
 560              	.LVL49:
 561              		.loc 1 350 10 is_stmt 0 view .LVU146
 562 0058 2846     		mov	r0, r5
 563 005a 12E0     		b	.L40
 564              	.LVL50:
 565              	.L48:
 322:Middlewares/ST/STM32_USB_Device_Library/Core/Src/usbd_core.c ****         }
 566              		.loc 1 322 11 is_stmt 1 view .LVU147
 567 005c 9847     		blx	r3
 568              	.LVL51:
 322:Middlewares/ST/STM32_USB_Device_Library/Core/Src/usbd_core.c ****         }
 569              		.loc 1 322 11 is_stmt 0 view .LVU148
 570 005e F8E7     		b	.L41
 571              	.LVL52:
 572              	.L47:
 334:Middlewares/ST/STM32_USB_Device_Library/Core/Src/usbd_core.c ****         USBD_LL_StallEP(pdev, 0U);
 573              		.loc 1 334 9 is_stmt 1 view .LVU149
 334:Middlewares/ST/STM32_USB_Device_Library/Core/Src/usbd_core.c ****         USBD_LL_StallEP(pdev, 0U);
 574              		.loc 1 334 25 is_stmt 0 view .LVU150
 575 0060 0021     		movs	r1, #0
 576              	.LVL53:
 334:Middlewares/ST/STM32_USB_Device_Library/Core/Src/usbd_core.c ****         USBD_LL_StallEP(pdev, 0U);
 577              		.loc 1 334 25 view .LVU151
 578 0062 C0F86C12 		str	r1, [r0, #620]
 335:Middlewares/ST/STM32_USB_Device_Library/Core/Src/usbd_core.c ****       }
 579              		.loc 1 335 9 is_stmt 1 view .LVU152
 580 0066 FFF7FEFF 		bl	USBD_LL_StallEP
 581              	.LVL54:
 582              		.loc 1 350 10 is_stmt 0 view .LVU153
 583 006a 2846     		mov	r0, r5
 584 006c 09E0     		b	.L40
 585              	.LVL55:
 586              	.L35:
 339:Middlewares/ST/STM32_USB_Device_Library/Core/Src/usbd_core.c ****           (pdev->dev_state == USBD_STATE_CONFIGURED))
 587              		.loc 1 339 8 is_stmt 1 view .LVU154
 339:Middlewares/ST/STM32_USB_Device_Library/Core/Src/usbd_core.c ****           (pdev->dev_state == USBD_STATE_CONFIGURED))
 588              		.loc 1 339 16 is_stmt 0 view .LVU155
 589 006e D0F88C32 		ldr	r3, [r0, #652]
 339:Middlewares/ST/STM32_USB_Device_Library/Core/Src/usbd_core.c ****           (pdev->dev_state == USBD_STATE_CONFIGURED))
 590              		.loc 1 339 24 view .LVU156
 591 0072 9B69     		ldr	r3, [r3, #24]
 339:Middlewares/ST/STM32_USB_Device_Library/Core/Src/usbd_core.c ****           (pdev->dev_state == USBD_STATE_CONFIGURED))
 592              		.loc 1 339 10 view .LVU157
 593 0074 33B1     		cbz	r3, .L43
 340:Middlewares/ST/STM32_USB_Device_Library/Core/Src/usbd_core.c ****   {
 594              		.loc 1 340 16 discriminator 1 view .LVU158
 595 0076 90F87422 		ldrb	r2, [r0, #628]	@ zero_extendqisi2
 596              	.LVL56:
 339:Middlewares/ST/STM32_USB_Device_Library/Core/Src/usbd_core.c ****           (pdev->dev_state == USBD_STATE_CONFIGURED))
 597              		.loc 1 339 43 discriminator 1 view .LVU159
ARM GAS  /var/folders/jr/lt9tb7vj2871x9rxdxc0hz4h0000gn/T//cc3ly4vt.s 			page 18


 598 007a 032A     		cmp	r2, #3
 599 007c 04D1     		bne	.L44
 342:Middlewares/ST/STM32_USB_Device_Library/Core/Src/usbd_core.c ****   }
 600              		.loc 1 342 5 is_stmt 1 view .LVU160
 601 007e 9847     		blx	r3
 602              	.LVL57:
 603              		.loc 1 350 10 is_stmt 0 view .LVU161
 604 0080 0020     		movs	r0, #0
 605              	.L40:
 351:Middlewares/ST/STM32_USB_Device_Library/Core/Src/usbd_core.c **** }
 606              		.loc 1 351 1 view .LVU162
 607 0082 38BD     		pop	{r3, r4, r5, pc}
 608              	.LVL58:
 609              	.L43:
 347:Middlewares/ST/STM32_USB_Device_Library/Core/Src/usbd_core.c ****   }
 610              		.loc 1 347 12 view .LVU163
 611 0084 0220     		movs	r0, #2
 612              	.LVL59:
 347:Middlewares/ST/STM32_USB_Device_Library/Core/Src/usbd_core.c ****   }
 613              		.loc 1 347 12 view .LVU164
 614 0086 FCE7     		b	.L40
 615              	.LVL60:
 616              	.L44:
 347:Middlewares/ST/STM32_USB_Device_Library/Core/Src/usbd_core.c ****   }
 617              		.loc 1 347 12 view .LVU165
 618 0088 0220     		movs	r0, #2
 619              	.LVL61:
 347:Middlewares/ST/STM32_USB_Device_Library/Core/Src/usbd_core.c ****   }
 620              		.loc 1 347 12 view .LVU166
 621 008a FAE7     		b	.L40
 622              		.cfi_endproc
 623              	.LFE142:
 625              		.section	.text.USBD_LL_DataInStage,"ax",%progbits
 626              		.align	1
 627              		.global	USBD_LL_DataInStage
 628              		.syntax unified
 629              		.thumb
 630              		.thumb_func
 632              	USBD_LL_DataInStage:
 633              	.LVL62:
 634              	.LFB143:
 352:Middlewares/ST/STM32_USB_Device_Library/Core/Src/usbd_core.c **** 
 353:Middlewares/ST/STM32_USB_Device_Library/Core/Src/usbd_core.c **** /**
 354:Middlewares/ST/STM32_USB_Device_Library/Core/Src/usbd_core.c **** * @brief  USBD_DataInStage
 355:Middlewares/ST/STM32_USB_Device_Library/Core/Src/usbd_core.c **** *         Handle data in stage
 356:Middlewares/ST/STM32_USB_Device_Library/Core/Src/usbd_core.c **** * @param  pdev: device instance
 357:Middlewares/ST/STM32_USB_Device_Library/Core/Src/usbd_core.c **** * @param  epnum: endpoint index
 358:Middlewares/ST/STM32_USB_Device_Library/Core/Src/usbd_core.c **** * @retval status
 359:Middlewares/ST/STM32_USB_Device_Library/Core/Src/usbd_core.c **** */
 360:Middlewares/ST/STM32_USB_Device_Library/Core/Src/usbd_core.c **** USBD_StatusTypeDef USBD_LL_DataInStage(USBD_HandleTypeDef *pdev, uint8_t epnum,
 361:Middlewares/ST/STM32_USB_Device_Library/Core/Src/usbd_core.c ****                                        uint8_t *pdata)
 362:Middlewares/ST/STM32_USB_Device_Library/Core/Src/usbd_core.c **** {
 635              		.loc 1 362 1 is_stmt 1 view -0
 636              		.cfi_startproc
 637              		@ args = 0, pretend = 0, frame = 0
 638              		@ frame_needed = 0, uses_anonymous_args = 0
 639              		.loc 1 362 1 is_stmt 0 view .LVU168
ARM GAS  /var/folders/jr/lt9tb7vj2871x9rxdxc0hz4h0000gn/T//cc3ly4vt.s 			page 19


 640 0000 38B5     		push	{r3, r4, r5, lr}
 641              	.LCFI9:
 642              		.cfi_def_cfa_offset 16
 643              		.cfi_offset 3, -16
 644              		.cfi_offset 4, -12
 645              		.cfi_offset 5, -8
 646              		.cfi_offset 14, -4
 647 0002 0446     		mov	r4, r0
 363:Middlewares/ST/STM32_USB_Device_Library/Core/Src/usbd_core.c ****   USBD_EndpointTypeDef *pep;
 648              		.loc 1 363 3 is_stmt 1 view .LVU169
 364:Middlewares/ST/STM32_USB_Device_Library/Core/Src/usbd_core.c **** 
 365:Middlewares/ST/STM32_USB_Device_Library/Core/Src/usbd_core.c ****   if(epnum == 0U)
 649              		.loc 1 365 3 view .LVU170
 650              		.loc 1 365 5 is_stmt 0 view .LVU171
 651 0004 0D46     		mov	r5, r1
 652 0006 0029     		cmp	r1, #0
 653 0008 53D1     		bne	.L50
 654 000a 1346     		mov	r3, r2
 366:Middlewares/ST/STM32_USB_Device_Library/Core/Src/usbd_core.c ****   {
 367:Middlewares/ST/STM32_USB_Device_Library/Core/Src/usbd_core.c ****     pep = &pdev->ep_in[0];
 655              		.loc 1 367 5 is_stmt 1 view .LVU172
 656              	.LVL63:
 368:Middlewares/ST/STM32_USB_Device_Library/Core/Src/usbd_core.c **** 
 369:Middlewares/ST/STM32_USB_Device_Library/Core/Src/usbd_core.c ****     if ( pdev->ep0_state == USBD_EP0_DATA_IN)
 657              		.loc 1 369 5 view .LVU173
 658              		.loc 1 369 14 is_stmt 0 view .LVU174
 659 000c D0F86C22 		ldr	r2, [r0, #620]
 660              	.LVL64:
 661              		.loc 1 369 8 view .LVU175
 662 0010 022A     		cmp	r2, #2
 663 0012 0CD0     		beq	.L62
 370:Middlewares/ST/STM32_USB_Device_Library/Core/Src/usbd_core.c ****     {
 371:Middlewares/ST/STM32_USB_Device_Library/Core/Src/usbd_core.c ****       if(pep->rem_length > pep->maxpacket)
 372:Middlewares/ST/STM32_USB_Device_Library/Core/Src/usbd_core.c ****       {
 373:Middlewares/ST/STM32_USB_Device_Library/Core/Src/usbd_core.c ****         pep->rem_length -= pep->maxpacket;
 374:Middlewares/ST/STM32_USB_Device_Library/Core/Src/usbd_core.c **** 
 375:Middlewares/ST/STM32_USB_Device_Library/Core/Src/usbd_core.c ****         USBD_CtlContinueSendData (pdev, pdata, (uint16_t)pep->rem_length);
 376:Middlewares/ST/STM32_USB_Device_Library/Core/Src/usbd_core.c **** 
 377:Middlewares/ST/STM32_USB_Device_Library/Core/Src/usbd_core.c ****         /* Prepare endpoint for premature end of transfer */
 378:Middlewares/ST/STM32_USB_Device_Library/Core/Src/usbd_core.c ****         USBD_LL_PrepareReceive (pdev, 0U, NULL, 0U);
 379:Middlewares/ST/STM32_USB_Device_Library/Core/Src/usbd_core.c ****       }
 380:Middlewares/ST/STM32_USB_Device_Library/Core/Src/usbd_core.c ****       else
 381:Middlewares/ST/STM32_USB_Device_Library/Core/Src/usbd_core.c ****       { /* last packet is MPS multiple, so send ZLP packet */
 382:Middlewares/ST/STM32_USB_Device_Library/Core/Src/usbd_core.c ****         if((pep->total_length % pep->maxpacket == 0U) &&
 383:Middlewares/ST/STM32_USB_Device_Library/Core/Src/usbd_core.c ****            (pep->total_length >= pep->maxpacket) &&
 384:Middlewares/ST/STM32_USB_Device_Library/Core/Src/usbd_core.c ****            (pep->total_length < pdev->ep0_data_len))
 385:Middlewares/ST/STM32_USB_Device_Library/Core/Src/usbd_core.c ****         {
 386:Middlewares/ST/STM32_USB_Device_Library/Core/Src/usbd_core.c ****           USBD_CtlContinueSendData(pdev, NULL, 0U);
 387:Middlewares/ST/STM32_USB_Device_Library/Core/Src/usbd_core.c ****           pdev->ep0_data_len = 0U;
 388:Middlewares/ST/STM32_USB_Device_Library/Core/Src/usbd_core.c **** 
 389:Middlewares/ST/STM32_USB_Device_Library/Core/Src/usbd_core.c ****           /* Prepare endpoint for premature end of transfer */
 390:Middlewares/ST/STM32_USB_Device_Library/Core/Src/usbd_core.c ****           USBD_LL_PrepareReceive (pdev, 0U, NULL, 0U);
 391:Middlewares/ST/STM32_USB_Device_Library/Core/Src/usbd_core.c ****         }
 392:Middlewares/ST/STM32_USB_Device_Library/Core/Src/usbd_core.c ****         else
 393:Middlewares/ST/STM32_USB_Device_Library/Core/Src/usbd_core.c ****         {
 394:Middlewares/ST/STM32_USB_Device_Library/Core/Src/usbd_core.c ****           if((pdev->pClass->EP0_TxSent != NULL)&&
 395:Middlewares/ST/STM32_USB_Device_Library/Core/Src/usbd_core.c ****              (pdev->dev_state == USBD_STATE_CONFIGURED))
ARM GAS  /var/folders/jr/lt9tb7vj2871x9rxdxc0hz4h0000gn/T//cc3ly4vt.s 			page 20


 396:Middlewares/ST/STM32_USB_Device_Library/Core/Src/usbd_core.c ****           {
 397:Middlewares/ST/STM32_USB_Device_Library/Core/Src/usbd_core.c ****             pdev->pClass->EP0_TxSent(pdev);
 398:Middlewares/ST/STM32_USB_Device_Library/Core/Src/usbd_core.c ****           }
 399:Middlewares/ST/STM32_USB_Device_Library/Core/Src/usbd_core.c ****           USBD_LL_StallEP(pdev, 0x80U);
 400:Middlewares/ST/STM32_USB_Device_Library/Core/Src/usbd_core.c ****           USBD_CtlReceiveStatus(pdev);
 401:Middlewares/ST/STM32_USB_Device_Library/Core/Src/usbd_core.c ****         }
 402:Middlewares/ST/STM32_USB_Device_Library/Core/Src/usbd_core.c ****       }
 403:Middlewares/ST/STM32_USB_Device_Library/Core/Src/usbd_core.c ****     }
 404:Middlewares/ST/STM32_USB_Device_Library/Core/Src/usbd_core.c ****     else
 405:Middlewares/ST/STM32_USB_Device_Library/Core/Src/usbd_core.c ****     {
 406:Middlewares/ST/STM32_USB_Device_Library/Core/Src/usbd_core.c ****       if ((pdev->ep0_state == USBD_EP0_STATUS_IN) ||
 664              		.loc 1 406 7 is_stmt 1 view .LVU176
 665              		.loc 1 406 10 is_stmt 0 view .LVU177
 666 0014 042A     		cmp	r2, #4
 667 0016 00D0     		beq	.L56
 668              		.loc 1 406 51 discriminator 1 view .LVU178
 669 0018 1AB9     		cbnz	r2, .L53
 670              	.L56:
 407:Middlewares/ST/STM32_USB_Device_Library/Core/Src/usbd_core.c ****           (pdev->ep0_state == USBD_EP0_IDLE))
 408:Middlewares/ST/STM32_USB_Device_Library/Core/Src/usbd_core.c ****       {
 409:Middlewares/ST/STM32_USB_Device_Library/Core/Src/usbd_core.c ****         USBD_LL_StallEP(pdev, 0x80U);
 671              		.loc 1 409 9 is_stmt 1 view .LVU179
 672 001a 8021     		movs	r1, #128
 673              	.LVL65:
 674              		.loc 1 409 9 is_stmt 0 view .LVU180
 675 001c 2046     		mov	r0, r4
 676              	.LVL66:
 677              		.loc 1 409 9 view .LVU181
 678 001e FFF7FEFF 		bl	USBD_LL_StallEP
 679              	.LVL67:
 680              	.L53:
 410:Middlewares/ST/STM32_USB_Device_Library/Core/Src/usbd_core.c ****       }
 411:Middlewares/ST/STM32_USB_Device_Library/Core/Src/usbd_core.c ****     }
 412:Middlewares/ST/STM32_USB_Device_Library/Core/Src/usbd_core.c **** 
 413:Middlewares/ST/STM32_USB_Device_Library/Core/Src/usbd_core.c ****     if (pdev->dev_test_mode == 1U)
 681              		.loc 1 413 5 is_stmt 1 view .LVU182
 682              		.loc 1 413 13 is_stmt 0 view .LVU183
 683 0022 94F87832 		ldrb	r3, [r4, #632]	@ zero_extendqisi2
 684              		.loc 1 413 8 view .LVU184
 685 0026 012B     		cmp	r3, #1
 686 0028 3ED0     		beq	.L63
 414:Middlewares/ST/STM32_USB_Device_Library/Core/Src/usbd_core.c ****     {
 415:Middlewares/ST/STM32_USB_Device_Library/Core/Src/usbd_core.c ****       USBD_RunTestMode(pdev);
 416:Middlewares/ST/STM32_USB_Device_Library/Core/Src/usbd_core.c ****       pdev->dev_test_mode = 0U;
 417:Middlewares/ST/STM32_USB_Device_Library/Core/Src/usbd_core.c ****     }
 418:Middlewares/ST/STM32_USB_Device_Library/Core/Src/usbd_core.c ****   }
 419:Middlewares/ST/STM32_USB_Device_Library/Core/Src/usbd_core.c ****   else if((pdev->pClass->DataIn != NULL) &&
 420:Middlewares/ST/STM32_USB_Device_Library/Core/Src/usbd_core.c ****           (pdev->dev_state == USBD_STATE_CONFIGURED))
 421:Middlewares/ST/STM32_USB_Device_Library/Core/Src/usbd_core.c ****   {
 422:Middlewares/ST/STM32_USB_Device_Library/Core/Src/usbd_core.c ****     pdev->pClass->DataIn(pdev, epnum);
 423:Middlewares/ST/STM32_USB_Device_Library/Core/Src/usbd_core.c ****   }
 424:Middlewares/ST/STM32_USB_Device_Library/Core/Src/usbd_core.c ****   else
 425:Middlewares/ST/STM32_USB_Device_Library/Core/Src/usbd_core.c ****   {
 426:Middlewares/ST/STM32_USB_Device_Library/Core/Src/usbd_core.c ****     /* should never be in this condition */
 427:Middlewares/ST/STM32_USB_Device_Library/Core/Src/usbd_core.c ****     return USBD_FAIL;
 428:Middlewares/ST/STM32_USB_Device_Library/Core/Src/usbd_core.c ****   }
 429:Middlewares/ST/STM32_USB_Device_Library/Core/Src/usbd_core.c **** 
ARM GAS  /var/folders/jr/lt9tb7vj2871x9rxdxc0hz4h0000gn/T//cc3ly4vt.s 			page 21


 430:Middlewares/ST/STM32_USB_Device_Library/Core/Src/usbd_core.c ****   return USBD_OK;
 687              		.loc 1 430 10 view .LVU185
 688 002a 2846     		mov	r0, r5
 689              	.LVL68:
 690              	.L57:
 431:Middlewares/ST/STM32_USB_Device_Library/Core/Src/usbd_core.c **** }
 691              		.loc 1 431 1 view .LVU186
 692 002c 38BD     		pop	{r3, r4, r5, pc}
 693              	.LVL69:
 694              	.L62:
 371:Middlewares/ST/STM32_USB_Device_Library/Core/Src/usbd_core.c ****       {
 695              		.loc 1 371 7 is_stmt 1 view .LVU187
 371:Middlewares/ST/STM32_USB_Device_Library/Core/Src/usbd_core.c ****       {
 696              		.loc 1 371 13 is_stmt 0 view .LVU188
 697 002e 026A     		ldr	r2, [r0, #32]
 371:Middlewares/ST/STM32_USB_Device_Library/Core/Src/usbd_core.c ****       {
 698              		.loc 1 371 31 view .LVU189
 699 0030 416A     		ldr	r1, [r0, #36]
 700              	.LVL70:
 371:Middlewares/ST/STM32_USB_Device_Library/Core/Src/usbd_core.c ****       {
 701              		.loc 1 371 9 view .LVU190
 702 0032 8A42     		cmp	r2, r1
 703 0034 1BD8     		bhi	.L64
 382:Middlewares/ST/STM32_USB_Device_Library/Core/Src/usbd_core.c ****            (pep->total_length >= pep->maxpacket) &&
 704              		.loc 1 382 9 is_stmt 1 view .LVU191
 382:Middlewares/ST/STM32_USB_Device_Library/Core/Src/usbd_core.c ****            (pep->total_length >= pep->maxpacket) &&
 705              		.loc 1 382 16 is_stmt 0 view .LVU192
 706 0036 C269     		ldr	r2, [r0, #28]
 382:Middlewares/ST/STM32_USB_Device_Library/Core/Src/usbd_core.c ****            (pep->total_length >= pep->maxpacket) &&
 707              		.loc 1 382 31 view .LVU193
 708 0038 B2FBF1F3 		udiv	r3, r2, r1
 709              	.LVL71:
 382:Middlewares/ST/STM32_USB_Device_Library/Core/Src/usbd_core.c ****            (pep->total_length >= pep->maxpacket) &&
 710              		.loc 1 382 31 view .LVU194
 711 003c 01FB1323 		mls	r3, r1, r3, r2
 382:Middlewares/ST/STM32_USB_Device_Library/Core/Src/usbd_core.c ****            (pep->total_length >= pep->maxpacket) &&
 712              		.loc 1 382 11 view .LVU195
 713 0040 2BB9     		cbnz	r3, .L54
 382:Middlewares/ST/STM32_USB_Device_Library/Core/Src/usbd_core.c ****            (pep->total_length >= pep->maxpacket) &&
 714              		.loc 1 382 55 discriminator 1 view .LVU196
 715 0042 9142     		cmp	r1, r2
 716 0044 03D8     		bhi	.L54
 384:Middlewares/ST/STM32_USB_Device_Library/Core/Src/usbd_core.c ****         {
 717              		.loc 1 384 37 view .LVU197
 718 0046 D0F87032 		ldr	r3, [r0, #624]
 383:Middlewares/ST/STM32_USB_Device_Library/Core/Src/usbd_core.c ****            (pep->total_length < pdev->ep0_data_len))
 719              		.loc 1 383 50 view .LVU198
 720 004a 9A42     		cmp	r2, r3
 721 004c 1CD3     		bcc	.L65
 722              	.L54:
 394:Middlewares/ST/STM32_USB_Device_Library/Core/Src/usbd_core.c ****              (pdev->dev_state == USBD_STATE_CONFIGURED))
 723              		.loc 1 394 11 is_stmt 1 view .LVU199
 394:Middlewares/ST/STM32_USB_Device_Library/Core/Src/usbd_core.c ****              (pdev->dev_state == USBD_STATE_CONFIGURED))
 724              		.loc 1 394 19 is_stmt 0 view .LVU200
 725 004e D4F88C32 		ldr	r3, [r4, #652]
 394:Middlewares/ST/STM32_USB_Device_Library/Core/Src/usbd_core.c ****              (pdev->dev_state == USBD_STATE_CONFIGURED))
 726              		.loc 1 394 27 view .LVU201
ARM GAS  /var/folders/jr/lt9tb7vj2871x9rxdxc0hz4h0000gn/T//cc3ly4vt.s 			page 22


 727 0052 DB68     		ldr	r3, [r3, #12]
 394:Middlewares/ST/STM32_USB_Device_Library/Core/Src/usbd_core.c ****              (pdev->dev_state == USBD_STATE_CONFIGURED))
 728              		.loc 1 394 13 view .LVU202
 729 0054 1BB1     		cbz	r3, .L55
 395:Middlewares/ST/STM32_USB_Device_Library/Core/Src/usbd_core.c ****           {
 730              		.loc 1 395 19 discriminator 1 view .LVU203
 731 0056 94F87422 		ldrb	r2, [r4, #628]	@ zero_extendqisi2
 394:Middlewares/ST/STM32_USB_Device_Library/Core/Src/usbd_core.c ****              (pdev->dev_state == USBD_STATE_CONFIGURED))
 732              		.loc 1 394 48 discriminator 1 view .LVU204
 733 005a 032A     		cmp	r2, #3
 734 005c 21D0     		beq	.L66
 735              	.LVL72:
 736              	.L55:
 399:Middlewares/ST/STM32_USB_Device_Library/Core/Src/usbd_core.c ****           USBD_CtlReceiveStatus(pdev);
 737              		.loc 1 399 11 is_stmt 1 view .LVU205
 738 005e 8021     		movs	r1, #128
 739 0060 2046     		mov	r0, r4
 740 0062 FFF7FEFF 		bl	USBD_LL_StallEP
 741              	.LVL73:
 400:Middlewares/ST/STM32_USB_Device_Library/Core/Src/usbd_core.c ****         }
 742              		.loc 1 400 11 view .LVU206
 743 0066 2046     		mov	r0, r4
 744 0068 FFF7FEFF 		bl	USBD_CtlReceiveStatus
 745              	.LVL74:
 746 006c D9E7     		b	.L53
 747              	.LVL75:
 748              	.L64:
 373:Middlewares/ST/STM32_USB_Device_Library/Core/Src/usbd_core.c **** 
 749              		.loc 1 373 9 view .LVU207
 373:Middlewares/ST/STM32_USB_Device_Library/Core/Src/usbd_core.c **** 
 750              		.loc 1 373 25 is_stmt 0 view .LVU208
 751 006e 521A     		subs	r2, r2, r1
 752 0070 0262     		str	r2, [r0, #32]
 375:Middlewares/ST/STM32_USB_Device_Library/Core/Src/usbd_core.c **** 
 753              		.loc 1 375 9 is_stmt 1 view .LVU209
 754 0072 92B2     		uxth	r2, r2
 755 0074 1946     		mov	r1, r3
 756 0076 FFF7FEFF 		bl	USBD_CtlContinueSendData
 757              	.LVL76:
 378:Middlewares/ST/STM32_USB_Device_Library/Core/Src/usbd_core.c ****       }
 758              		.loc 1 378 9 view .LVU210
 759 007a 0023     		movs	r3, #0
 760 007c 1A46     		mov	r2, r3
 761 007e 1946     		mov	r1, r3
 762 0080 2046     		mov	r0, r4
 763 0082 FFF7FEFF 		bl	USBD_LL_PrepareReceive
 764              	.LVL77:
 765 0086 CCE7     		b	.L53
 766              	.LVL78:
 767              	.L65:
 386:Middlewares/ST/STM32_USB_Device_Library/Core/Src/usbd_core.c ****           pdev->ep0_data_len = 0U;
 768              		.loc 1 386 11 view .LVU211
 769 0088 0022     		movs	r2, #0
 770 008a 1146     		mov	r1, r2
 771 008c FFF7FEFF 		bl	USBD_CtlContinueSendData
 772              	.LVL79:
 387:Middlewares/ST/STM32_USB_Device_Library/Core/Src/usbd_core.c **** 
ARM GAS  /var/folders/jr/lt9tb7vj2871x9rxdxc0hz4h0000gn/T//cc3ly4vt.s 			page 23


 773              		.loc 1 387 11 view .LVU212
 387:Middlewares/ST/STM32_USB_Device_Library/Core/Src/usbd_core.c **** 
 774              		.loc 1 387 30 is_stmt 0 view .LVU213
 775 0090 0021     		movs	r1, #0
 776 0092 C4F87012 		str	r1, [r4, #624]
 390:Middlewares/ST/STM32_USB_Device_Library/Core/Src/usbd_core.c ****         }
 777              		.loc 1 390 11 is_stmt 1 view .LVU214
 778 0096 0B46     		mov	r3, r1
 779 0098 0A46     		mov	r2, r1
 780 009a 2046     		mov	r0, r4
 781 009c FFF7FEFF 		bl	USBD_LL_PrepareReceive
 782              	.LVL80:
 783 00a0 BFE7     		b	.L53
 784              	.LVL81:
 785              	.L66:
 397:Middlewares/ST/STM32_USB_Device_Library/Core/Src/usbd_core.c ****           }
 786              		.loc 1 397 13 view .LVU215
 787 00a2 2046     		mov	r0, r4
 788              	.LVL82:
 397:Middlewares/ST/STM32_USB_Device_Library/Core/Src/usbd_core.c ****           }
 789              		.loc 1 397 13 is_stmt 0 view .LVU216
 790 00a4 9847     		blx	r3
 791              	.LVL83:
 792 00a6 DAE7     		b	.L55
 793              	.L63:
 415:Middlewares/ST/STM32_USB_Device_Library/Core/Src/usbd_core.c ****       pdev->dev_test_mode = 0U;
 794              		.loc 1 415 7 is_stmt 1 view .LVU217
 416:Middlewares/ST/STM32_USB_Device_Library/Core/Src/usbd_core.c ****     }
 795              		.loc 1 416 7 view .LVU218
 416:Middlewares/ST/STM32_USB_Device_Library/Core/Src/usbd_core.c ****     }
 796              		.loc 1 416 27 is_stmt 0 view .LVU219
 797 00a8 0023     		movs	r3, #0
 798 00aa 84F87832 		strb	r3, [r4, #632]
 430:Middlewares/ST/STM32_USB_Device_Library/Core/Src/usbd_core.c **** }
 799              		.loc 1 430 10 view .LVU220
 800 00ae 2846     		mov	r0, r5
 801 00b0 BCE7     		b	.L57
 802              	.LVL84:
 803              	.L50:
 419:Middlewares/ST/STM32_USB_Device_Library/Core/Src/usbd_core.c ****           (pdev->dev_state == USBD_STATE_CONFIGURED))
 804              		.loc 1 419 8 is_stmt 1 view .LVU221
 419:Middlewares/ST/STM32_USB_Device_Library/Core/Src/usbd_core.c ****           (pdev->dev_state == USBD_STATE_CONFIGURED))
 805              		.loc 1 419 16 is_stmt 0 view .LVU222
 806 00b2 D0F88C32 		ldr	r3, [r0, #652]
 419:Middlewares/ST/STM32_USB_Device_Library/Core/Src/usbd_core.c ****           (pdev->dev_state == USBD_STATE_CONFIGURED))
 807              		.loc 1 419 24 view .LVU223
 808 00b6 5B69     		ldr	r3, [r3, #20]
 419:Middlewares/ST/STM32_USB_Device_Library/Core/Src/usbd_core.c ****           (pdev->dev_state == USBD_STATE_CONFIGURED))
 809              		.loc 1 419 10 view .LVU224
 810 00b8 33B1     		cbz	r3, .L59
 420:Middlewares/ST/STM32_USB_Device_Library/Core/Src/usbd_core.c ****   {
 811              		.loc 1 420 16 discriminator 1 view .LVU225
 812 00ba 90F87422 		ldrb	r2, [r0, #628]	@ zero_extendqisi2
 813              	.LVL85:
 419:Middlewares/ST/STM32_USB_Device_Library/Core/Src/usbd_core.c ****           (pdev->dev_state == USBD_STATE_CONFIGURED))
 814              		.loc 1 419 42 discriminator 1 view .LVU226
 815 00be 032A     		cmp	r2, #3
ARM GAS  /var/folders/jr/lt9tb7vj2871x9rxdxc0hz4h0000gn/T//cc3ly4vt.s 			page 24


 816 00c0 04D1     		bne	.L60
 422:Middlewares/ST/STM32_USB_Device_Library/Core/Src/usbd_core.c ****   }
 817              		.loc 1 422 5 is_stmt 1 view .LVU227
 818 00c2 9847     		blx	r3
 819              	.LVL86:
 430:Middlewares/ST/STM32_USB_Device_Library/Core/Src/usbd_core.c **** }
 820              		.loc 1 430 10 is_stmt 0 view .LVU228
 821 00c4 0020     		movs	r0, #0
 422:Middlewares/ST/STM32_USB_Device_Library/Core/Src/usbd_core.c ****   }
 822              		.loc 1 422 5 view .LVU229
 823 00c6 B1E7     		b	.L57
 824              	.LVL87:
 825              	.L59:
 427:Middlewares/ST/STM32_USB_Device_Library/Core/Src/usbd_core.c ****   }
 826              		.loc 1 427 12 view .LVU230
 827 00c8 0220     		movs	r0, #2
 828              	.LVL88:
 427:Middlewares/ST/STM32_USB_Device_Library/Core/Src/usbd_core.c ****   }
 829              		.loc 1 427 12 view .LVU231
 830 00ca AFE7     		b	.L57
 831              	.LVL89:
 832              	.L60:
 427:Middlewares/ST/STM32_USB_Device_Library/Core/Src/usbd_core.c ****   }
 833              		.loc 1 427 12 view .LVU232
 834 00cc 0220     		movs	r0, #2
 835              	.LVL90:
 427:Middlewares/ST/STM32_USB_Device_Library/Core/Src/usbd_core.c ****   }
 836              		.loc 1 427 12 view .LVU233
 837 00ce ADE7     		b	.L57
 838              		.cfi_endproc
 839              	.LFE143:
 841              		.section	.text.USBD_LL_Reset,"ax",%progbits
 842              		.align	1
 843              		.global	USBD_LL_Reset
 844              		.syntax unified
 845              		.thumb
 846              		.thumb_func
 848              	USBD_LL_Reset:
 849              	.LVL91:
 850              	.LFB144:
 432:Middlewares/ST/STM32_USB_Device_Library/Core/Src/usbd_core.c **** 
 433:Middlewares/ST/STM32_USB_Device_Library/Core/Src/usbd_core.c **** /**
 434:Middlewares/ST/STM32_USB_Device_Library/Core/Src/usbd_core.c **** * @brief  USBD_LL_Reset
 435:Middlewares/ST/STM32_USB_Device_Library/Core/Src/usbd_core.c **** *         Handle Reset event
 436:Middlewares/ST/STM32_USB_Device_Library/Core/Src/usbd_core.c **** * @param  pdev: device instance
 437:Middlewares/ST/STM32_USB_Device_Library/Core/Src/usbd_core.c **** * @retval status
 438:Middlewares/ST/STM32_USB_Device_Library/Core/Src/usbd_core.c **** */
 439:Middlewares/ST/STM32_USB_Device_Library/Core/Src/usbd_core.c **** 
 440:Middlewares/ST/STM32_USB_Device_Library/Core/Src/usbd_core.c **** USBD_StatusTypeDef USBD_LL_Reset(USBD_HandleTypeDef  *pdev)
 441:Middlewares/ST/STM32_USB_Device_Library/Core/Src/usbd_core.c **** {
 851              		.loc 1 441 1 is_stmt 1 view -0
 852              		.cfi_startproc
 853              		@ args = 0, pretend = 0, frame = 0
 854              		@ frame_needed = 0, uses_anonymous_args = 0
 855              		.loc 1 441 1 is_stmt 0 view .LVU235
 856 0000 70B5     		push	{r4, r5, r6, lr}
 857              	.LCFI10:
ARM GAS  /var/folders/jr/lt9tb7vj2871x9rxdxc0hz4h0000gn/T//cc3ly4vt.s 			page 25


 858              		.cfi_def_cfa_offset 16
 859              		.cfi_offset 4, -16
 860              		.cfi_offset 5, -12
 861              		.cfi_offset 6, -8
 862              		.cfi_offset 14, -4
 863 0002 0446     		mov	r4, r0
 442:Middlewares/ST/STM32_USB_Device_Library/Core/Src/usbd_core.c ****   /* Open EP0 OUT */
 443:Middlewares/ST/STM32_USB_Device_Library/Core/Src/usbd_core.c ****   USBD_LL_OpenEP(pdev, 0x00U, USBD_EP_TYPE_CTRL, USB_MAX_EP0_SIZE);
 864              		.loc 1 443 3 is_stmt 1 view .LVU236
 865 0004 4023     		movs	r3, #64
 866 0006 0022     		movs	r2, #0
 867 0008 1146     		mov	r1, r2
 868 000a FFF7FEFF 		bl	USBD_LL_OpenEP
 869              	.LVL92:
 444:Middlewares/ST/STM32_USB_Device_Library/Core/Src/usbd_core.c ****   pdev->ep_out[0x00U & 0xFU].is_used = 1U;
 870              		.loc 1 444 3 view .LVU237
 871              		.loc 1 444 38 is_stmt 0 view .LVU238
 872 000e 0125     		movs	r5, #1
 873 0010 C4F84451 		str	r5, [r4, #324]
 445:Middlewares/ST/STM32_USB_Device_Library/Core/Src/usbd_core.c **** 
 446:Middlewares/ST/STM32_USB_Device_Library/Core/Src/usbd_core.c ****   pdev->ep_out[0].maxpacket = USB_MAX_EP0_SIZE;
 874              		.loc 1 446 3 is_stmt 1 view .LVU239
 875              		.loc 1 446 29 is_stmt 0 view .LVU240
 876 0014 4026     		movs	r6, #64
 877 0016 C4F85061 		str	r6, [r4, #336]
 447:Middlewares/ST/STM32_USB_Device_Library/Core/Src/usbd_core.c **** 
 448:Middlewares/ST/STM32_USB_Device_Library/Core/Src/usbd_core.c ****   /* Open EP0 IN */
 449:Middlewares/ST/STM32_USB_Device_Library/Core/Src/usbd_core.c ****   USBD_LL_OpenEP(pdev, 0x80U, USBD_EP_TYPE_CTRL, USB_MAX_EP0_SIZE);
 878              		.loc 1 449 3 is_stmt 1 view .LVU241
 879 001a 3346     		mov	r3, r6
 880 001c 0022     		movs	r2, #0
 881 001e 8021     		movs	r1, #128
 882 0020 2046     		mov	r0, r4
 883 0022 FFF7FEFF 		bl	USBD_LL_OpenEP
 884              	.LVL93:
 450:Middlewares/ST/STM32_USB_Device_Library/Core/Src/usbd_core.c ****   pdev->ep_in[0x80U & 0xFU].is_used = 1U;
 885              		.loc 1 450 3 view .LVU242
 886              		.loc 1 450 37 is_stmt 0 view .LVU243
 887 0026 A561     		str	r5, [r4, #24]
 451:Middlewares/ST/STM32_USB_Device_Library/Core/Src/usbd_core.c **** 
 452:Middlewares/ST/STM32_USB_Device_Library/Core/Src/usbd_core.c ****   pdev->ep_in[0].maxpacket = USB_MAX_EP0_SIZE;
 888              		.loc 1 452 3 is_stmt 1 view .LVU244
 889              		.loc 1 452 28 is_stmt 0 view .LVU245
 890 0028 6662     		str	r6, [r4, #36]
 453:Middlewares/ST/STM32_USB_Device_Library/Core/Src/usbd_core.c ****   /* Upon Reset call user call back */
 454:Middlewares/ST/STM32_USB_Device_Library/Core/Src/usbd_core.c ****   pdev->dev_state = USBD_STATE_DEFAULT;
 891              		.loc 1 454 3 is_stmt 1 view .LVU246
 892              		.loc 1 454 19 is_stmt 0 view .LVU247
 893 002a 84F87452 		strb	r5, [r4, #628]
 455:Middlewares/ST/STM32_USB_Device_Library/Core/Src/usbd_core.c ****   pdev->ep0_state = USBD_EP0_IDLE;
 894              		.loc 1 455 3 is_stmt 1 view .LVU248
 895              		.loc 1 455 19 is_stmt 0 view .LVU249
 896 002e 0023     		movs	r3, #0
 897 0030 C4F86C32 		str	r3, [r4, #620]
 456:Middlewares/ST/STM32_USB_Device_Library/Core/Src/usbd_core.c ****   pdev->dev_config= 0U;
 898              		.loc 1 456 3 is_stmt 1 view .LVU250
 899              		.loc 1 456 19 is_stmt 0 view .LVU251
ARM GAS  /var/folders/jr/lt9tb7vj2871x9rxdxc0hz4h0000gn/T//cc3ly4vt.s 			page 26


 900 0034 6360     		str	r3, [r4, #4]
 457:Middlewares/ST/STM32_USB_Device_Library/Core/Src/usbd_core.c ****   pdev->dev_remote_wakeup = 0U;
 901              		.loc 1 457 3 is_stmt 1 view .LVU252
 902              		.loc 1 457 27 is_stmt 0 view .LVU253
 903 0036 C4F87C32 		str	r3, [r4, #636]
 458:Middlewares/ST/STM32_USB_Device_Library/Core/Src/usbd_core.c **** 
 459:Middlewares/ST/STM32_USB_Device_Library/Core/Src/usbd_core.c ****   if (pdev->pClassData)
 904              		.loc 1 459 3 is_stmt 1 view .LVU254
 905              		.loc 1 459 11 is_stmt 0 view .LVU255
 906 003a D4F89032 		ldr	r3, [r4, #656]
 907              		.loc 1 459 6 view .LVU256
 908 003e 2BB1     		cbz	r3, .L68
 460:Middlewares/ST/STM32_USB_Device_Library/Core/Src/usbd_core.c ****   {
 461:Middlewares/ST/STM32_USB_Device_Library/Core/Src/usbd_core.c ****     pdev->pClass->DeInit(pdev, (uint8_t)pdev->dev_config);
 909              		.loc 1 461 5 is_stmt 1 view .LVU257
 910              		.loc 1 461 9 is_stmt 0 view .LVU258
 911 0040 D4F88C32 		ldr	r3, [r4, #652]
 912              		.loc 1 461 17 view .LVU259
 913 0044 5B68     		ldr	r3, [r3, #4]
 914              		.loc 1 461 5 view .LVU260
 915 0046 0021     		movs	r1, #0
 916 0048 2046     		mov	r0, r4
 917 004a 9847     		blx	r3
 918              	.LVL94:
 919              	.L68:
 462:Middlewares/ST/STM32_USB_Device_Library/Core/Src/usbd_core.c ****   }
 463:Middlewares/ST/STM32_USB_Device_Library/Core/Src/usbd_core.c **** 
 464:Middlewares/ST/STM32_USB_Device_Library/Core/Src/usbd_core.c ****   return USBD_OK;
 920              		.loc 1 464 3 is_stmt 1 view .LVU261
 465:Middlewares/ST/STM32_USB_Device_Library/Core/Src/usbd_core.c **** }
 921              		.loc 1 465 1 is_stmt 0 view .LVU262
 922 004c 0020     		movs	r0, #0
 923 004e 70BD     		pop	{r4, r5, r6, pc}
 924              		.loc 1 465 1 view .LVU263
 925              		.cfi_endproc
 926              	.LFE144:
 928              		.section	.text.USBD_LL_SetSpeed,"ax",%progbits
 929              		.align	1
 930              		.global	USBD_LL_SetSpeed
 931              		.syntax unified
 932              		.thumb
 933              		.thumb_func
 935              	USBD_LL_SetSpeed:
 936              	.LVL95:
 937              	.LFB145:
 466:Middlewares/ST/STM32_USB_Device_Library/Core/Src/usbd_core.c **** 
 467:Middlewares/ST/STM32_USB_Device_Library/Core/Src/usbd_core.c **** /**
 468:Middlewares/ST/STM32_USB_Device_Library/Core/Src/usbd_core.c **** * @brief  USBD_LL_Reset
 469:Middlewares/ST/STM32_USB_Device_Library/Core/Src/usbd_core.c **** *         Handle Reset event
 470:Middlewares/ST/STM32_USB_Device_Library/Core/Src/usbd_core.c **** * @param  pdev: device instance
 471:Middlewares/ST/STM32_USB_Device_Library/Core/Src/usbd_core.c **** * @retval status
 472:Middlewares/ST/STM32_USB_Device_Library/Core/Src/usbd_core.c **** */
 473:Middlewares/ST/STM32_USB_Device_Library/Core/Src/usbd_core.c **** USBD_StatusTypeDef USBD_LL_SetSpeed(USBD_HandleTypeDef  *pdev, USBD_SpeedTypeDef speed)
 474:Middlewares/ST/STM32_USB_Device_Library/Core/Src/usbd_core.c **** {
 938              		.loc 1 474 1 is_stmt 1 view -0
 939              		.cfi_startproc
 940              		@ args = 0, pretend = 0, frame = 0
ARM GAS  /var/folders/jr/lt9tb7vj2871x9rxdxc0hz4h0000gn/T//cc3ly4vt.s 			page 27


 941              		@ frame_needed = 0, uses_anonymous_args = 0
 942              		@ link register save eliminated.
 475:Middlewares/ST/STM32_USB_Device_Library/Core/Src/usbd_core.c ****   pdev->dev_speed = speed;
 943              		.loc 1 475 3 view .LVU265
 944              		.loc 1 475 19 is_stmt 0 view .LVU266
 945 0000 0174     		strb	r1, [r0, #16]
 476:Middlewares/ST/STM32_USB_Device_Library/Core/Src/usbd_core.c ****   return USBD_OK;
 946              		.loc 1 476 3 is_stmt 1 view .LVU267
 477:Middlewares/ST/STM32_USB_Device_Library/Core/Src/usbd_core.c **** }
 947              		.loc 1 477 1 is_stmt 0 view .LVU268
 948 0002 0020     		movs	r0, #0
 949              	.LVL96:
 950              		.loc 1 477 1 view .LVU269
 951 0004 7047     		bx	lr
 952              		.cfi_endproc
 953              	.LFE145:
 955              		.section	.text.USBD_LL_Suspend,"ax",%progbits
 956              		.align	1
 957              		.global	USBD_LL_Suspend
 958              		.syntax unified
 959              		.thumb
 960              		.thumb_func
 962              	USBD_LL_Suspend:
 963              	.LVL97:
 964              	.LFB146:
 478:Middlewares/ST/STM32_USB_Device_Library/Core/Src/usbd_core.c **** 
 479:Middlewares/ST/STM32_USB_Device_Library/Core/Src/usbd_core.c **** /**
 480:Middlewares/ST/STM32_USB_Device_Library/Core/Src/usbd_core.c **** * @brief  USBD_Suspend
 481:Middlewares/ST/STM32_USB_Device_Library/Core/Src/usbd_core.c **** *         Handle Suspend event
 482:Middlewares/ST/STM32_USB_Device_Library/Core/Src/usbd_core.c **** * @param  pdev: device instance
 483:Middlewares/ST/STM32_USB_Device_Library/Core/Src/usbd_core.c **** * @retval status
 484:Middlewares/ST/STM32_USB_Device_Library/Core/Src/usbd_core.c **** */
 485:Middlewares/ST/STM32_USB_Device_Library/Core/Src/usbd_core.c **** 
 486:Middlewares/ST/STM32_USB_Device_Library/Core/Src/usbd_core.c **** USBD_StatusTypeDef USBD_LL_Suspend(USBD_HandleTypeDef  *pdev)
 487:Middlewares/ST/STM32_USB_Device_Library/Core/Src/usbd_core.c **** {
 965              		.loc 1 487 1 is_stmt 1 view -0
 966              		.cfi_startproc
 967              		@ args = 0, pretend = 0, frame = 0
 968              		@ frame_needed = 0, uses_anonymous_args = 0
 969              		@ link register save eliminated.
 488:Middlewares/ST/STM32_USB_Device_Library/Core/Src/usbd_core.c ****   pdev->dev_old_state =  pdev->dev_state;
 970              		.loc 1 488 3 view .LVU271
 971              		.loc 1 488 30 is_stmt 0 view .LVU272
 972 0000 90F87432 		ldrb	r3, [r0, #628]	@ zero_extendqisi2
 973              		.loc 1 488 23 view .LVU273
 974 0004 80F87532 		strb	r3, [r0, #629]
 489:Middlewares/ST/STM32_USB_Device_Library/Core/Src/usbd_core.c ****   pdev->dev_state  = USBD_STATE_SUSPENDED;
 975              		.loc 1 489 3 is_stmt 1 view .LVU274
 976              		.loc 1 489 20 is_stmt 0 view .LVU275
 977 0008 0423     		movs	r3, #4
 978 000a 80F87432 		strb	r3, [r0, #628]
 490:Middlewares/ST/STM32_USB_Device_Library/Core/Src/usbd_core.c ****   return USBD_OK;
 979              		.loc 1 490 3 is_stmt 1 view .LVU276
 491:Middlewares/ST/STM32_USB_Device_Library/Core/Src/usbd_core.c **** }
 980              		.loc 1 491 1 is_stmt 0 view .LVU277
 981 000e 0020     		movs	r0, #0
 982              	.LVL98:
ARM GAS  /var/folders/jr/lt9tb7vj2871x9rxdxc0hz4h0000gn/T//cc3ly4vt.s 			page 28


 983              		.loc 1 491 1 view .LVU278
 984 0010 7047     		bx	lr
 985              		.cfi_endproc
 986              	.LFE146:
 988              		.section	.text.USBD_LL_Resume,"ax",%progbits
 989              		.align	1
 990              		.global	USBD_LL_Resume
 991              		.syntax unified
 992              		.thumb
 993              		.thumb_func
 995              	USBD_LL_Resume:
 996              	.LVL99:
 997              	.LFB147:
 492:Middlewares/ST/STM32_USB_Device_Library/Core/Src/usbd_core.c **** 
 493:Middlewares/ST/STM32_USB_Device_Library/Core/Src/usbd_core.c **** /**
 494:Middlewares/ST/STM32_USB_Device_Library/Core/Src/usbd_core.c **** * @brief  USBD_Resume
 495:Middlewares/ST/STM32_USB_Device_Library/Core/Src/usbd_core.c **** *         Handle Resume event
 496:Middlewares/ST/STM32_USB_Device_Library/Core/Src/usbd_core.c **** * @param  pdev: device instance
 497:Middlewares/ST/STM32_USB_Device_Library/Core/Src/usbd_core.c **** * @retval status
 498:Middlewares/ST/STM32_USB_Device_Library/Core/Src/usbd_core.c **** */
 499:Middlewares/ST/STM32_USB_Device_Library/Core/Src/usbd_core.c **** 
 500:Middlewares/ST/STM32_USB_Device_Library/Core/Src/usbd_core.c **** USBD_StatusTypeDef USBD_LL_Resume(USBD_HandleTypeDef  *pdev)
 501:Middlewares/ST/STM32_USB_Device_Library/Core/Src/usbd_core.c **** {
 998              		.loc 1 501 1 is_stmt 1 view -0
 999              		.cfi_startproc
 1000              		@ args = 0, pretend = 0, frame = 0
 1001              		@ frame_needed = 0, uses_anonymous_args = 0
 1002              		@ link register save eliminated.
 502:Middlewares/ST/STM32_USB_Device_Library/Core/Src/usbd_core.c ****   pdev->dev_state = pdev->dev_old_state;
 1003              		.loc 1 502 3 view .LVU280
 1004              		.loc 1 502 25 is_stmt 0 view .LVU281
 1005 0000 90F87532 		ldrb	r3, [r0, #629]	@ zero_extendqisi2
 1006              		.loc 1 502 19 view .LVU282
 1007 0004 80F87432 		strb	r3, [r0, #628]
 503:Middlewares/ST/STM32_USB_Device_Library/Core/Src/usbd_core.c ****   return USBD_OK;
 1008              		.loc 1 503 3 is_stmt 1 view .LVU283
 504:Middlewares/ST/STM32_USB_Device_Library/Core/Src/usbd_core.c **** }
 1009              		.loc 1 504 1 is_stmt 0 view .LVU284
 1010 0008 0020     		movs	r0, #0
 1011              	.LVL100:
 1012              		.loc 1 504 1 view .LVU285
 1013 000a 7047     		bx	lr
 1014              		.cfi_endproc
 1015              	.LFE147:
 1017              		.section	.text.USBD_LL_SOF,"ax",%progbits
 1018              		.align	1
 1019              		.global	USBD_LL_SOF
 1020              		.syntax unified
 1021              		.thumb
 1022              		.thumb_func
 1024              	USBD_LL_SOF:
 1025              	.LVL101:
 1026              	.LFB148:
 505:Middlewares/ST/STM32_USB_Device_Library/Core/Src/usbd_core.c **** 
 506:Middlewares/ST/STM32_USB_Device_Library/Core/Src/usbd_core.c **** /**
 507:Middlewares/ST/STM32_USB_Device_Library/Core/Src/usbd_core.c **** * @brief  USBD_SOF
 508:Middlewares/ST/STM32_USB_Device_Library/Core/Src/usbd_core.c **** *         Handle SOF event
ARM GAS  /var/folders/jr/lt9tb7vj2871x9rxdxc0hz4h0000gn/T//cc3ly4vt.s 			page 29


 509:Middlewares/ST/STM32_USB_Device_Library/Core/Src/usbd_core.c **** * @param  pdev: device instance
 510:Middlewares/ST/STM32_USB_Device_Library/Core/Src/usbd_core.c **** * @retval status
 511:Middlewares/ST/STM32_USB_Device_Library/Core/Src/usbd_core.c **** */
 512:Middlewares/ST/STM32_USB_Device_Library/Core/Src/usbd_core.c **** 
 513:Middlewares/ST/STM32_USB_Device_Library/Core/Src/usbd_core.c **** USBD_StatusTypeDef USBD_LL_SOF(USBD_HandleTypeDef  *pdev)
 514:Middlewares/ST/STM32_USB_Device_Library/Core/Src/usbd_core.c **** {
 1027              		.loc 1 514 1 is_stmt 1 view -0
 1028              		.cfi_startproc
 1029              		@ args = 0, pretend = 0, frame = 0
 1030              		@ frame_needed = 0, uses_anonymous_args = 0
 1031              		.loc 1 514 1 is_stmt 0 view .LVU287
 1032 0000 08B5     		push	{r3, lr}
 1033              	.LCFI11:
 1034              		.cfi_def_cfa_offset 8
 1035              		.cfi_offset 3, -8
 1036              		.cfi_offset 14, -4
 515:Middlewares/ST/STM32_USB_Device_Library/Core/Src/usbd_core.c ****   if(pdev->dev_state == USBD_STATE_CONFIGURED)
 1037              		.loc 1 515 3 is_stmt 1 view .LVU288
 1038              		.loc 1 515 10 is_stmt 0 view .LVU289
 1039 0002 90F87432 		ldrb	r3, [r0, #628]	@ zero_extendqisi2
 1040              		.loc 1 515 5 view .LVU290
 1041 0006 032B     		cmp	r3, #3
 1042 0008 01D0     		beq	.L76
 1043              	.LVL102:
 1044              	.L74:
 516:Middlewares/ST/STM32_USB_Device_Library/Core/Src/usbd_core.c ****   {
 517:Middlewares/ST/STM32_USB_Device_Library/Core/Src/usbd_core.c ****     if(pdev->pClass->SOF != NULL)
 518:Middlewares/ST/STM32_USB_Device_Library/Core/Src/usbd_core.c ****     {
 519:Middlewares/ST/STM32_USB_Device_Library/Core/Src/usbd_core.c ****       pdev->pClass->SOF(pdev);
 520:Middlewares/ST/STM32_USB_Device_Library/Core/Src/usbd_core.c ****     }
 521:Middlewares/ST/STM32_USB_Device_Library/Core/Src/usbd_core.c ****   }
 522:Middlewares/ST/STM32_USB_Device_Library/Core/Src/usbd_core.c ****   return USBD_OK;
 1045              		.loc 1 522 3 is_stmt 1 view .LVU291
 523:Middlewares/ST/STM32_USB_Device_Library/Core/Src/usbd_core.c **** }
 1046              		.loc 1 523 1 is_stmt 0 view .LVU292
 1047 000a 0020     		movs	r0, #0
 1048 000c 08BD     		pop	{r3, pc}
 1049              	.LVL103:
 1050              	.L76:
 517:Middlewares/ST/STM32_USB_Device_Library/Core/Src/usbd_core.c ****     {
 1051              		.loc 1 517 5 is_stmt 1 view .LVU293
 517:Middlewares/ST/STM32_USB_Device_Library/Core/Src/usbd_core.c ****     {
 1052              		.loc 1 517 12 is_stmt 0 view .LVU294
 1053 000e D0F88C32 		ldr	r3, [r0, #652]
 517:Middlewares/ST/STM32_USB_Device_Library/Core/Src/usbd_core.c ****     {
 1054              		.loc 1 517 20 view .LVU295
 1055 0012 DB69     		ldr	r3, [r3, #28]
 517:Middlewares/ST/STM32_USB_Device_Library/Core/Src/usbd_core.c ****     {
 1056              		.loc 1 517 7 view .LVU296
 1057 0014 002B     		cmp	r3, #0
 1058 0016 F8D0     		beq	.L74
 519:Middlewares/ST/STM32_USB_Device_Library/Core/Src/usbd_core.c ****     }
 1059              		.loc 1 519 7 is_stmt 1 view .LVU297
 1060 0018 9847     		blx	r3
 1061              	.LVL104:
 519:Middlewares/ST/STM32_USB_Device_Library/Core/Src/usbd_core.c ****     }
 1062              		.loc 1 519 7 is_stmt 0 view .LVU298
ARM GAS  /var/folders/jr/lt9tb7vj2871x9rxdxc0hz4h0000gn/T//cc3ly4vt.s 			page 30


 1063 001a F6E7     		b	.L74
 1064              		.cfi_endproc
 1065              	.LFE148:
 1067              		.section	.text.USBD_LL_IsoINIncomplete,"ax",%progbits
 1068              		.align	1
 1069              		.global	USBD_LL_IsoINIncomplete
 1070              		.syntax unified
 1071              		.thumb
 1072              		.thumb_func
 1074              	USBD_LL_IsoINIncomplete:
 1075              	.LVL105:
 1076              	.LFB149:
 524:Middlewares/ST/STM32_USB_Device_Library/Core/Src/usbd_core.c **** 
 525:Middlewares/ST/STM32_USB_Device_Library/Core/Src/usbd_core.c **** /**
 526:Middlewares/ST/STM32_USB_Device_Library/Core/Src/usbd_core.c **** * @brief  USBD_IsoINIncomplete
 527:Middlewares/ST/STM32_USB_Device_Library/Core/Src/usbd_core.c **** *         Handle iso in incomplete event
 528:Middlewares/ST/STM32_USB_Device_Library/Core/Src/usbd_core.c **** * @param  pdev: device instance
 529:Middlewares/ST/STM32_USB_Device_Library/Core/Src/usbd_core.c **** * @retval status
 530:Middlewares/ST/STM32_USB_Device_Library/Core/Src/usbd_core.c **** */
 531:Middlewares/ST/STM32_USB_Device_Library/Core/Src/usbd_core.c **** USBD_StatusTypeDef USBD_LL_IsoINIncomplete(USBD_HandleTypeDef  *pdev, uint8_t epnum)
 532:Middlewares/ST/STM32_USB_Device_Library/Core/Src/usbd_core.c **** {
 1077              		.loc 1 532 1 is_stmt 1 view -0
 1078              		.cfi_startproc
 1079              		@ args = 0, pretend = 0, frame = 0
 1080              		@ frame_needed = 0, uses_anonymous_args = 0
 1081              		@ link register save eliminated.
 533:Middlewares/ST/STM32_USB_Device_Library/Core/Src/usbd_core.c ****   /* Prevent unused arguments compilation warning */
 534:Middlewares/ST/STM32_USB_Device_Library/Core/Src/usbd_core.c ****   UNUSED(pdev);
 1082              		.loc 1 534 3 view .LVU300
 535:Middlewares/ST/STM32_USB_Device_Library/Core/Src/usbd_core.c ****   UNUSED(epnum);
 1083              		.loc 1 535 3 view .LVU301
 536:Middlewares/ST/STM32_USB_Device_Library/Core/Src/usbd_core.c **** 
 537:Middlewares/ST/STM32_USB_Device_Library/Core/Src/usbd_core.c ****   return USBD_OK;
 1084              		.loc 1 537 3 view .LVU302
 538:Middlewares/ST/STM32_USB_Device_Library/Core/Src/usbd_core.c **** }
 1085              		.loc 1 538 1 is_stmt 0 view .LVU303
 1086 0000 0020     		movs	r0, #0
 1087              	.LVL106:
 1088              		.loc 1 538 1 view .LVU304
 1089 0002 7047     		bx	lr
 1090              		.cfi_endproc
 1091              	.LFE149:
 1093              		.section	.text.USBD_LL_IsoOUTIncomplete,"ax",%progbits
 1094              		.align	1
 1095              		.global	USBD_LL_IsoOUTIncomplete
 1096              		.syntax unified
 1097              		.thumb
 1098              		.thumb_func
 1100              	USBD_LL_IsoOUTIncomplete:
 1101              	.LVL107:
 1102              	.LFB150:
 539:Middlewares/ST/STM32_USB_Device_Library/Core/Src/usbd_core.c **** 
 540:Middlewares/ST/STM32_USB_Device_Library/Core/Src/usbd_core.c **** /**
 541:Middlewares/ST/STM32_USB_Device_Library/Core/Src/usbd_core.c **** * @brief  USBD_IsoOUTIncomplete
 542:Middlewares/ST/STM32_USB_Device_Library/Core/Src/usbd_core.c **** *         Handle iso out incomplete event
 543:Middlewares/ST/STM32_USB_Device_Library/Core/Src/usbd_core.c **** * @param  pdev: device instance
 544:Middlewares/ST/STM32_USB_Device_Library/Core/Src/usbd_core.c **** * @retval status
ARM GAS  /var/folders/jr/lt9tb7vj2871x9rxdxc0hz4h0000gn/T//cc3ly4vt.s 			page 31


 545:Middlewares/ST/STM32_USB_Device_Library/Core/Src/usbd_core.c **** */
 546:Middlewares/ST/STM32_USB_Device_Library/Core/Src/usbd_core.c **** USBD_StatusTypeDef USBD_LL_IsoOUTIncomplete(USBD_HandleTypeDef  *pdev, uint8_t epnum)
 547:Middlewares/ST/STM32_USB_Device_Library/Core/Src/usbd_core.c **** {
 1103              		.loc 1 547 1 is_stmt 1 view -0
 1104              		.cfi_startproc
 1105              		@ args = 0, pretend = 0, frame = 0
 1106              		@ frame_needed = 0, uses_anonymous_args = 0
 1107              		@ link register save eliminated.
 548:Middlewares/ST/STM32_USB_Device_Library/Core/Src/usbd_core.c ****   /* Prevent unused arguments compilation warning */
 549:Middlewares/ST/STM32_USB_Device_Library/Core/Src/usbd_core.c ****   UNUSED(pdev);
 1108              		.loc 1 549 3 view .LVU306
 550:Middlewares/ST/STM32_USB_Device_Library/Core/Src/usbd_core.c ****   UNUSED(epnum);
 1109              		.loc 1 550 3 view .LVU307
 551:Middlewares/ST/STM32_USB_Device_Library/Core/Src/usbd_core.c **** 
 552:Middlewares/ST/STM32_USB_Device_Library/Core/Src/usbd_core.c ****   return USBD_OK;
 1110              		.loc 1 552 3 view .LVU308
 553:Middlewares/ST/STM32_USB_Device_Library/Core/Src/usbd_core.c **** }
 1111              		.loc 1 553 1 is_stmt 0 view .LVU309
 1112 0000 0020     		movs	r0, #0
 1113              	.LVL108:
 1114              		.loc 1 553 1 view .LVU310
 1115 0002 7047     		bx	lr
 1116              		.cfi_endproc
 1117              	.LFE150:
 1119              		.section	.text.USBD_LL_DevConnected,"ax",%progbits
 1120              		.align	1
 1121              		.global	USBD_LL_DevConnected
 1122              		.syntax unified
 1123              		.thumb
 1124              		.thumb_func
 1126              	USBD_LL_DevConnected:
 1127              	.LVL109:
 1128              	.LFB151:
 554:Middlewares/ST/STM32_USB_Device_Library/Core/Src/usbd_core.c **** 
 555:Middlewares/ST/STM32_USB_Device_Library/Core/Src/usbd_core.c **** /**
 556:Middlewares/ST/STM32_USB_Device_Library/Core/Src/usbd_core.c **** * @brief  USBD_DevConnected
 557:Middlewares/ST/STM32_USB_Device_Library/Core/Src/usbd_core.c **** *         Handle device connection event
 558:Middlewares/ST/STM32_USB_Device_Library/Core/Src/usbd_core.c **** * @param  pdev: device instance
 559:Middlewares/ST/STM32_USB_Device_Library/Core/Src/usbd_core.c **** * @retval status
 560:Middlewares/ST/STM32_USB_Device_Library/Core/Src/usbd_core.c **** */
 561:Middlewares/ST/STM32_USB_Device_Library/Core/Src/usbd_core.c **** USBD_StatusTypeDef USBD_LL_DevConnected(USBD_HandleTypeDef  *pdev)
 562:Middlewares/ST/STM32_USB_Device_Library/Core/Src/usbd_core.c **** {
 1129              		.loc 1 562 1 is_stmt 1 view -0
 1130              		.cfi_startproc
 1131              		@ args = 0, pretend = 0, frame = 0
 1132              		@ frame_needed = 0, uses_anonymous_args = 0
 1133              		@ link register save eliminated.
 563:Middlewares/ST/STM32_USB_Device_Library/Core/Src/usbd_core.c ****   /* Prevent unused argument compilation warning */
 564:Middlewares/ST/STM32_USB_Device_Library/Core/Src/usbd_core.c ****   UNUSED(pdev);
 1134              		.loc 1 564 3 view .LVU312
 565:Middlewares/ST/STM32_USB_Device_Library/Core/Src/usbd_core.c **** 
 566:Middlewares/ST/STM32_USB_Device_Library/Core/Src/usbd_core.c ****   return USBD_OK;
 1135              		.loc 1 566 3 view .LVU313
 567:Middlewares/ST/STM32_USB_Device_Library/Core/Src/usbd_core.c **** }
 1136              		.loc 1 567 1 is_stmt 0 view .LVU314
 1137 0000 0020     		movs	r0, #0
 1138              	.LVL110:
ARM GAS  /var/folders/jr/lt9tb7vj2871x9rxdxc0hz4h0000gn/T//cc3ly4vt.s 			page 32


 1139              		.loc 1 567 1 view .LVU315
 1140 0002 7047     		bx	lr
 1141              		.cfi_endproc
 1142              	.LFE151:
 1144              		.section	.text.USBD_LL_DevDisconnected,"ax",%progbits
 1145              		.align	1
 1146              		.global	USBD_LL_DevDisconnected
 1147              		.syntax unified
 1148              		.thumb
 1149              		.thumb_func
 1151              	USBD_LL_DevDisconnected:
 1152              	.LVL111:
 1153              	.LFB152:
 568:Middlewares/ST/STM32_USB_Device_Library/Core/Src/usbd_core.c **** 
 569:Middlewares/ST/STM32_USB_Device_Library/Core/Src/usbd_core.c **** /**
 570:Middlewares/ST/STM32_USB_Device_Library/Core/Src/usbd_core.c **** * @brief  USBD_DevDisconnected
 571:Middlewares/ST/STM32_USB_Device_Library/Core/Src/usbd_core.c **** *         Handle device disconnection event
 572:Middlewares/ST/STM32_USB_Device_Library/Core/Src/usbd_core.c **** * @param  pdev: device instance
 573:Middlewares/ST/STM32_USB_Device_Library/Core/Src/usbd_core.c **** * @retval status
 574:Middlewares/ST/STM32_USB_Device_Library/Core/Src/usbd_core.c **** */
 575:Middlewares/ST/STM32_USB_Device_Library/Core/Src/usbd_core.c **** USBD_StatusTypeDef USBD_LL_DevDisconnected(USBD_HandleTypeDef  *pdev)
 576:Middlewares/ST/STM32_USB_Device_Library/Core/Src/usbd_core.c **** {
 1154              		.loc 1 576 1 is_stmt 1 view -0
 1155              		.cfi_startproc
 1156              		@ args = 0, pretend = 0, frame = 0
 1157              		@ frame_needed = 0, uses_anonymous_args = 0
 1158              		.loc 1 576 1 is_stmt 0 view .LVU317
 1159 0000 08B5     		push	{r3, lr}
 1160              	.LCFI12:
 1161              		.cfi_def_cfa_offset 8
 1162              		.cfi_offset 3, -8
 1163              		.cfi_offset 14, -4
 577:Middlewares/ST/STM32_USB_Device_Library/Core/Src/usbd_core.c ****   /* Free Class Resources */
 578:Middlewares/ST/STM32_USB_Device_Library/Core/Src/usbd_core.c ****   pdev->dev_state = USBD_STATE_DEFAULT;
 1164              		.loc 1 578 3 is_stmt 1 view .LVU318
 1165              		.loc 1 578 19 is_stmt 0 view .LVU319
 1166 0002 0122     		movs	r2, #1
 1167 0004 80F87422 		strb	r2, [r0, #628]
 579:Middlewares/ST/STM32_USB_Device_Library/Core/Src/usbd_core.c ****   pdev->pClass->DeInit(pdev, (uint8_t)pdev->dev_config);
 1168              		.loc 1 579 3 is_stmt 1 view .LVU320
 1169              		.loc 1 579 7 is_stmt 0 view .LVU321
 1170 0008 D0F88C22 		ldr	r2, [r0, #652]
 1171              		.loc 1 579 15 view .LVU322
 1172 000c 5268     		ldr	r2, [r2, #4]
 1173              		.loc 1 579 3 view .LVU323
 1174 000e 0179     		ldrb	r1, [r0, #4]	@ zero_extendqisi2
 1175 0010 9047     		blx	r2
 1176              	.LVL112:
 580:Middlewares/ST/STM32_USB_Device_Library/Core/Src/usbd_core.c **** 
 581:Middlewares/ST/STM32_USB_Device_Library/Core/Src/usbd_core.c ****   return USBD_OK;
 1177              		.loc 1 581 3 is_stmt 1 view .LVU324
 582:Middlewares/ST/STM32_USB_Device_Library/Core/Src/usbd_core.c **** }
 1178              		.loc 1 582 1 is_stmt 0 view .LVU325
 1179 0012 0020     		movs	r0, #0
 1180 0014 08BD     		pop	{r3, pc}
 1181              		.cfi_endproc
 1182              	.LFE152:
ARM GAS  /var/folders/jr/lt9tb7vj2871x9rxdxc0hz4h0000gn/T//cc3ly4vt.s 			page 33


 1184              		.text
 1185              	.Letext0:
 1186              		.file 2 "/Applications/ARM/arm-none-eabi/include/machine/_default_types.h"
 1187              		.file 3 "/Applications/ARM/arm-none-eabi/include/sys/_stdint.h"
 1188              		.file 4 "Middlewares/ST/STM32_USB_Device_Library/Core/Inc/usbd_def.h"
 1189              		.file 5 "Middlewares/ST/STM32_USB_Device_Library/Core/Inc/usbd_core.h"
 1190              		.file 6 "Middlewares/ST/STM32_USB_Device_Library/Core/Inc/usbd_ioreq.h"
 1191              		.file 7 "Middlewares/ST/STM32_USB_Device_Library/Core/Inc/usbd_ctlreq.h"
ARM GAS  /var/folders/jr/lt9tb7vj2871x9rxdxc0hz4h0000gn/T//cc3ly4vt.s 			page 34

