ARM GAS  /var/folders/jr/lt9tb7vj2871x9rxdxc0hz4h0000gn/T//ccaStH1G.s 			page 1


   1              		.cpu cortex-m4
   2              		.arch armv7e-m
   3              		.fpu fpv4-sp-d16
   4              		.eabi_attribute 27, 1
   5              		.eabi_attribute 28, 1
   6              		.eabi_attribute 20, 1
   7              		.eabi_attribute 21, 1
   8              		.eabi_attribute 23, 3
   9              		.eabi_attribute 24, 1
  10              		.eabi_attribute 25, 1
  11              		.eabi_attribute 26, 1
  12              		.eabi_attribute 30, 1
  13              		.eabi_attribute 34, 1
  14              		.eabi_attribute 18, 4
  15              		.file	"usbd_ctlreq.c"
  16              		.text
  17              	.Ltext0:
  18              		.cfi_sections	.debug_frame
  19              		.section	.text.USBD_GetLen,"ax",%progbits
  20              		.align	1
  21              		.syntax unified
  22              		.thumb
  23              		.thumb_func
  25              	USBD_GetLen:
  26              	.LVL0:
  27              	.LFB146:
  28              		.file 1 "Middlewares/ST/STM32_USB_Device_Library/Core/Src/usbd_ctlreq.c"
   1:Middlewares/ST/STM32_USB_Device_Library/Core/Src/usbd_ctlreq.c **** /**
   2:Middlewares/ST/STM32_USB_Device_Library/Core/Src/usbd_ctlreq.c ****   ******************************************************************************
   3:Middlewares/ST/STM32_USB_Device_Library/Core/Src/usbd_ctlreq.c ****   * @file    usbd_req.c
   4:Middlewares/ST/STM32_USB_Device_Library/Core/Src/usbd_ctlreq.c ****   * @author  MCD Application Team
   5:Middlewares/ST/STM32_USB_Device_Library/Core/Src/usbd_ctlreq.c ****   * @brief   This file provides the standard USB requests following chapter 9.
   6:Middlewares/ST/STM32_USB_Device_Library/Core/Src/usbd_ctlreq.c ****   ******************************************************************************
   7:Middlewares/ST/STM32_USB_Device_Library/Core/Src/usbd_ctlreq.c ****   * @attention
   8:Middlewares/ST/STM32_USB_Device_Library/Core/Src/usbd_ctlreq.c ****   *
   9:Middlewares/ST/STM32_USB_Device_Library/Core/Src/usbd_ctlreq.c ****   * <h2><center>&copy; Copyright (c) 2015 STMicroelectronics.
  10:Middlewares/ST/STM32_USB_Device_Library/Core/Src/usbd_ctlreq.c ****   * All rights reserved.</center></h2>
  11:Middlewares/ST/STM32_USB_Device_Library/Core/Src/usbd_ctlreq.c ****   *
  12:Middlewares/ST/STM32_USB_Device_Library/Core/Src/usbd_ctlreq.c ****   * This software component is licensed by ST under Ultimate Liberty license
  13:Middlewares/ST/STM32_USB_Device_Library/Core/Src/usbd_ctlreq.c ****   * SLA0044, the "License"; You may not use this file except in compliance with
  14:Middlewares/ST/STM32_USB_Device_Library/Core/Src/usbd_ctlreq.c ****   * the License. You may obtain a copy of the License at:
  15:Middlewares/ST/STM32_USB_Device_Library/Core/Src/usbd_ctlreq.c ****   *                      http://www.st.com/SLA0044
  16:Middlewares/ST/STM32_USB_Device_Library/Core/Src/usbd_ctlreq.c ****   *
  17:Middlewares/ST/STM32_USB_Device_Library/Core/Src/usbd_ctlreq.c ****   ******************************************************************************
  18:Middlewares/ST/STM32_USB_Device_Library/Core/Src/usbd_ctlreq.c ****   */
  19:Middlewares/ST/STM32_USB_Device_Library/Core/Src/usbd_ctlreq.c **** 
  20:Middlewares/ST/STM32_USB_Device_Library/Core/Src/usbd_ctlreq.c **** /* Includes ------------------------------------------------------------------*/
  21:Middlewares/ST/STM32_USB_Device_Library/Core/Src/usbd_ctlreq.c **** #include "usbd_ctlreq.h"
  22:Middlewares/ST/STM32_USB_Device_Library/Core/Src/usbd_ctlreq.c **** #include "usbd_ioreq.h"
  23:Middlewares/ST/STM32_USB_Device_Library/Core/Src/usbd_ctlreq.c **** 
  24:Middlewares/ST/STM32_USB_Device_Library/Core/Src/usbd_ctlreq.c **** 
  25:Middlewares/ST/STM32_USB_Device_Library/Core/Src/usbd_ctlreq.c **** /** @addtogroup STM32_USBD_STATE_DEVICE_LIBRARY
  26:Middlewares/ST/STM32_USB_Device_Library/Core/Src/usbd_ctlreq.c ****   * @{
  27:Middlewares/ST/STM32_USB_Device_Library/Core/Src/usbd_ctlreq.c ****   */
  28:Middlewares/ST/STM32_USB_Device_Library/Core/Src/usbd_ctlreq.c **** 
  29:Middlewares/ST/STM32_USB_Device_Library/Core/Src/usbd_ctlreq.c **** 
  30:Middlewares/ST/STM32_USB_Device_Library/Core/Src/usbd_ctlreq.c **** /** @defgroup USBD_REQ
ARM GAS  /var/folders/jr/lt9tb7vj2871x9rxdxc0hz4h0000gn/T//ccaStH1G.s 			page 2


  31:Middlewares/ST/STM32_USB_Device_Library/Core/Src/usbd_ctlreq.c ****   * @brief USB standard requests module
  32:Middlewares/ST/STM32_USB_Device_Library/Core/Src/usbd_ctlreq.c ****   * @{
  33:Middlewares/ST/STM32_USB_Device_Library/Core/Src/usbd_ctlreq.c ****   */
  34:Middlewares/ST/STM32_USB_Device_Library/Core/Src/usbd_ctlreq.c **** 
  35:Middlewares/ST/STM32_USB_Device_Library/Core/Src/usbd_ctlreq.c **** /** @defgroup USBD_REQ_Private_TypesDefinitions
  36:Middlewares/ST/STM32_USB_Device_Library/Core/Src/usbd_ctlreq.c ****   * @{
  37:Middlewares/ST/STM32_USB_Device_Library/Core/Src/usbd_ctlreq.c ****   */
  38:Middlewares/ST/STM32_USB_Device_Library/Core/Src/usbd_ctlreq.c **** /**
  39:Middlewares/ST/STM32_USB_Device_Library/Core/Src/usbd_ctlreq.c ****   * @}
  40:Middlewares/ST/STM32_USB_Device_Library/Core/Src/usbd_ctlreq.c ****   */
  41:Middlewares/ST/STM32_USB_Device_Library/Core/Src/usbd_ctlreq.c **** 
  42:Middlewares/ST/STM32_USB_Device_Library/Core/Src/usbd_ctlreq.c **** 
  43:Middlewares/ST/STM32_USB_Device_Library/Core/Src/usbd_ctlreq.c **** /** @defgroup USBD_REQ_Private_Defines
  44:Middlewares/ST/STM32_USB_Device_Library/Core/Src/usbd_ctlreq.c ****   * @{
  45:Middlewares/ST/STM32_USB_Device_Library/Core/Src/usbd_ctlreq.c ****   */
  46:Middlewares/ST/STM32_USB_Device_Library/Core/Src/usbd_ctlreq.c **** 
  47:Middlewares/ST/STM32_USB_Device_Library/Core/Src/usbd_ctlreq.c **** /**
  48:Middlewares/ST/STM32_USB_Device_Library/Core/Src/usbd_ctlreq.c ****   * @}
  49:Middlewares/ST/STM32_USB_Device_Library/Core/Src/usbd_ctlreq.c ****   */
  50:Middlewares/ST/STM32_USB_Device_Library/Core/Src/usbd_ctlreq.c **** 
  51:Middlewares/ST/STM32_USB_Device_Library/Core/Src/usbd_ctlreq.c **** 
  52:Middlewares/ST/STM32_USB_Device_Library/Core/Src/usbd_ctlreq.c **** /** @defgroup USBD_REQ_Private_Macros
  53:Middlewares/ST/STM32_USB_Device_Library/Core/Src/usbd_ctlreq.c ****   * @{
  54:Middlewares/ST/STM32_USB_Device_Library/Core/Src/usbd_ctlreq.c ****   */
  55:Middlewares/ST/STM32_USB_Device_Library/Core/Src/usbd_ctlreq.c **** /**
  56:Middlewares/ST/STM32_USB_Device_Library/Core/Src/usbd_ctlreq.c ****   * @}
  57:Middlewares/ST/STM32_USB_Device_Library/Core/Src/usbd_ctlreq.c ****   */
  58:Middlewares/ST/STM32_USB_Device_Library/Core/Src/usbd_ctlreq.c **** 
  59:Middlewares/ST/STM32_USB_Device_Library/Core/Src/usbd_ctlreq.c **** 
  60:Middlewares/ST/STM32_USB_Device_Library/Core/Src/usbd_ctlreq.c **** /** @defgroup USBD_REQ_Private_Variables
  61:Middlewares/ST/STM32_USB_Device_Library/Core/Src/usbd_ctlreq.c ****   * @{
  62:Middlewares/ST/STM32_USB_Device_Library/Core/Src/usbd_ctlreq.c ****   */
  63:Middlewares/ST/STM32_USB_Device_Library/Core/Src/usbd_ctlreq.c **** /**
  64:Middlewares/ST/STM32_USB_Device_Library/Core/Src/usbd_ctlreq.c ****   * @}
  65:Middlewares/ST/STM32_USB_Device_Library/Core/Src/usbd_ctlreq.c ****   */
  66:Middlewares/ST/STM32_USB_Device_Library/Core/Src/usbd_ctlreq.c **** 
  67:Middlewares/ST/STM32_USB_Device_Library/Core/Src/usbd_ctlreq.c **** 
  68:Middlewares/ST/STM32_USB_Device_Library/Core/Src/usbd_ctlreq.c **** /** @defgroup USBD_REQ_Private_FunctionPrototypes
  69:Middlewares/ST/STM32_USB_Device_Library/Core/Src/usbd_ctlreq.c ****   * @{
  70:Middlewares/ST/STM32_USB_Device_Library/Core/Src/usbd_ctlreq.c ****   */
  71:Middlewares/ST/STM32_USB_Device_Library/Core/Src/usbd_ctlreq.c **** static void USBD_GetDescriptor(USBD_HandleTypeDef *pdev ,
  72:Middlewares/ST/STM32_USB_Device_Library/Core/Src/usbd_ctlreq.c ****                                USBD_SetupReqTypedef *req);
  73:Middlewares/ST/STM32_USB_Device_Library/Core/Src/usbd_ctlreq.c **** 
  74:Middlewares/ST/STM32_USB_Device_Library/Core/Src/usbd_ctlreq.c **** static void USBD_SetAddress(USBD_HandleTypeDef *pdev ,
  75:Middlewares/ST/STM32_USB_Device_Library/Core/Src/usbd_ctlreq.c ****                             USBD_SetupReqTypedef *req);
  76:Middlewares/ST/STM32_USB_Device_Library/Core/Src/usbd_ctlreq.c **** 
  77:Middlewares/ST/STM32_USB_Device_Library/Core/Src/usbd_ctlreq.c **** static void USBD_SetConfig(USBD_HandleTypeDef *pdev ,
  78:Middlewares/ST/STM32_USB_Device_Library/Core/Src/usbd_ctlreq.c ****                            USBD_SetupReqTypedef *req);
  79:Middlewares/ST/STM32_USB_Device_Library/Core/Src/usbd_ctlreq.c **** 
  80:Middlewares/ST/STM32_USB_Device_Library/Core/Src/usbd_ctlreq.c **** static void USBD_GetConfig(USBD_HandleTypeDef *pdev ,
  81:Middlewares/ST/STM32_USB_Device_Library/Core/Src/usbd_ctlreq.c ****                            USBD_SetupReqTypedef *req);
  82:Middlewares/ST/STM32_USB_Device_Library/Core/Src/usbd_ctlreq.c **** 
  83:Middlewares/ST/STM32_USB_Device_Library/Core/Src/usbd_ctlreq.c **** static void USBD_GetStatus(USBD_HandleTypeDef *pdev ,
  84:Middlewares/ST/STM32_USB_Device_Library/Core/Src/usbd_ctlreq.c ****                            USBD_SetupReqTypedef *req);
  85:Middlewares/ST/STM32_USB_Device_Library/Core/Src/usbd_ctlreq.c **** 
  86:Middlewares/ST/STM32_USB_Device_Library/Core/Src/usbd_ctlreq.c **** static void USBD_SetFeature(USBD_HandleTypeDef *pdev ,
  87:Middlewares/ST/STM32_USB_Device_Library/Core/Src/usbd_ctlreq.c ****                             USBD_SetupReqTypedef *req);
ARM GAS  /var/folders/jr/lt9tb7vj2871x9rxdxc0hz4h0000gn/T//ccaStH1G.s 			page 3


  88:Middlewares/ST/STM32_USB_Device_Library/Core/Src/usbd_ctlreq.c **** 
  89:Middlewares/ST/STM32_USB_Device_Library/Core/Src/usbd_ctlreq.c **** static void USBD_ClrFeature(USBD_HandleTypeDef *pdev ,
  90:Middlewares/ST/STM32_USB_Device_Library/Core/Src/usbd_ctlreq.c ****                             USBD_SetupReqTypedef *req);
  91:Middlewares/ST/STM32_USB_Device_Library/Core/Src/usbd_ctlreq.c **** 
  92:Middlewares/ST/STM32_USB_Device_Library/Core/Src/usbd_ctlreq.c **** static uint8_t USBD_GetLen(uint8_t *buf);
  93:Middlewares/ST/STM32_USB_Device_Library/Core/Src/usbd_ctlreq.c **** 
  94:Middlewares/ST/STM32_USB_Device_Library/Core/Src/usbd_ctlreq.c **** /**
  95:Middlewares/ST/STM32_USB_Device_Library/Core/Src/usbd_ctlreq.c ****   * @}
  96:Middlewares/ST/STM32_USB_Device_Library/Core/Src/usbd_ctlreq.c ****   */
  97:Middlewares/ST/STM32_USB_Device_Library/Core/Src/usbd_ctlreq.c **** 
  98:Middlewares/ST/STM32_USB_Device_Library/Core/Src/usbd_ctlreq.c **** 
  99:Middlewares/ST/STM32_USB_Device_Library/Core/Src/usbd_ctlreq.c **** /** @defgroup USBD_REQ_Private_Functions
 100:Middlewares/ST/STM32_USB_Device_Library/Core/Src/usbd_ctlreq.c ****   * @{
 101:Middlewares/ST/STM32_USB_Device_Library/Core/Src/usbd_ctlreq.c ****   */
 102:Middlewares/ST/STM32_USB_Device_Library/Core/Src/usbd_ctlreq.c **** 
 103:Middlewares/ST/STM32_USB_Device_Library/Core/Src/usbd_ctlreq.c **** 
 104:Middlewares/ST/STM32_USB_Device_Library/Core/Src/usbd_ctlreq.c **** /**
 105:Middlewares/ST/STM32_USB_Device_Library/Core/Src/usbd_ctlreq.c **** * @brief  USBD_StdDevReq
 106:Middlewares/ST/STM32_USB_Device_Library/Core/Src/usbd_ctlreq.c **** *         Handle standard usb device requests
 107:Middlewares/ST/STM32_USB_Device_Library/Core/Src/usbd_ctlreq.c **** * @param  pdev: device instance
 108:Middlewares/ST/STM32_USB_Device_Library/Core/Src/usbd_ctlreq.c **** * @param  req: usb request
 109:Middlewares/ST/STM32_USB_Device_Library/Core/Src/usbd_ctlreq.c **** * @retval status
 110:Middlewares/ST/STM32_USB_Device_Library/Core/Src/usbd_ctlreq.c **** */
 111:Middlewares/ST/STM32_USB_Device_Library/Core/Src/usbd_ctlreq.c **** USBD_StatusTypeDef  USBD_StdDevReq (USBD_HandleTypeDef *pdev , USBD_SetupReqTypedef  *req)
 112:Middlewares/ST/STM32_USB_Device_Library/Core/Src/usbd_ctlreq.c **** {
 113:Middlewares/ST/STM32_USB_Device_Library/Core/Src/usbd_ctlreq.c ****   USBD_StatusTypeDef ret = USBD_OK;
 114:Middlewares/ST/STM32_USB_Device_Library/Core/Src/usbd_ctlreq.c **** 
 115:Middlewares/ST/STM32_USB_Device_Library/Core/Src/usbd_ctlreq.c ****   switch (req->bmRequest & USB_REQ_TYPE_MASK)
 116:Middlewares/ST/STM32_USB_Device_Library/Core/Src/usbd_ctlreq.c ****   {
 117:Middlewares/ST/STM32_USB_Device_Library/Core/Src/usbd_ctlreq.c ****   case USB_REQ_TYPE_CLASS:
 118:Middlewares/ST/STM32_USB_Device_Library/Core/Src/usbd_ctlreq.c ****   case USB_REQ_TYPE_VENDOR:
 119:Middlewares/ST/STM32_USB_Device_Library/Core/Src/usbd_ctlreq.c ****     pdev->pClass->Setup(pdev, req);
 120:Middlewares/ST/STM32_USB_Device_Library/Core/Src/usbd_ctlreq.c ****     break;
 121:Middlewares/ST/STM32_USB_Device_Library/Core/Src/usbd_ctlreq.c **** 
 122:Middlewares/ST/STM32_USB_Device_Library/Core/Src/usbd_ctlreq.c ****   case USB_REQ_TYPE_STANDARD:
 123:Middlewares/ST/STM32_USB_Device_Library/Core/Src/usbd_ctlreq.c **** 
 124:Middlewares/ST/STM32_USB_Device_Library/Core/Src/usbd_ctlreq.c ****     switch (req->bRequest)
 125:Middlewares/ST/STM32_USB_Device_Library/Core/Src/usbd_ctlreq.c ****     {
 126:Middlewares/ST/STM32_USB_Device_Library/Core/Src/usbd_ctlreq.c ****     case USB_REQ_GET_DESCRIPTOR:
 127:Middlewares/ST/STM32_USB_Device_Library/Core/Src/usbd_ctlreq.c **** 
 128:Middlewares/ST/STM32_USB_Device_Library/Core/Src/usbd_ctlreq.c ****       USBD_GetDescriptor (pdev, req);
 129:Middlewares/ST/STM32_USB_Device_Library/Core/Src/usbd_ctlreq.c ****       break;
 130:Middlewares/ST/STM32_USB_Device_Library/Core/Src/usbd_ctlreq.c **** 
 131:Middlewares/ST/STM32_USB_Device_Library/Core/Src/usbd_ctlreq.c ****     case USB_REQ_SET_ADDRESS:
 132:Middlewares/ST/STM32_USB_Device_Library/Core/Src/usbd_ctlreq.c ****       USBD_SetAddress (pdev, req);
 133:Middlewares/ST/STM32_USB_Device_Library/Core/Src/usbd_ctlreq.c ****       break;
 134:Middlewares/ST/STM32_USB_Device_Library/Core/Src/usbd_ctlreq.c **** 
 135:Middlewares/ST/STM32_USB_Device_Library/Core/Src/usbd_ctlreq.c ****     case USB_REQ_SET_CONFIGURATION:
 136:Middlewares/ST/STM32_USB_Device_Library/Core/Src/usbd_ctlreq.c ****       USBD_SetConfig (pdev, req);
 137:Middlewares/ST/STM32_USB_Device_Library/Core/Src/usbd_ctlreq.c ****       break;
 138:Middlewares/ST/STM32_USB_Device_Library/Core/Src/usbd_ctlreq.c **** 
 139:Middlewares/ST/STM32_USB_Device_Library/Core/Src/usbd_ctlreq.c ****     case USB_REQ_GET_CONFIGURATION:
 140:Middlewares/ST/STM32_USB_Device_Library/Core/Src/usbd_ctlreq.c ****       USBD_GetConfig (pdev, req);
 141:Middlewares/ST/STM32_USB_Device_Library/Core/Src/usbd_ctlreq.c ****       break;
 142:Middlewares/ST/STM32_USB_Device_Library/Core/Src/usbd_ctlreq.c **** 
 143:Middlewares/ST/STM32_USB_Device_Library/Core/Src/usbd_ctlreq.c ****     case USB_REQ_GET_STATUS:
 144:Middlewares/ST/STM32_USB_Device_Library/Core/Src/usbd_ctlreq.c ****       USBD_GetStatus (pdev, req);
ARM GAS  /var/folders/jr/lt9tb7vj2871x9rxdxc0hz4h0000gn/T//ccaStH1G.s 			page 4


 145:Middlewares/ST/STM32_USB_Device_Library/Core/Src/usbd_ctlreq.c ****       break;
 146:Middlewares/ST/STM32_USB_Device_Library/Core/Src/usbd_ctlreq.c **** 
 147:Middlewares/ST/STM32_USB_Device_Library/Core/Src/usbd_ctlreq.c **** 
 148:Middlewares/ST/STM32_USB_Device_Library/Core/Src/usbd_ctlreq.c ****     case USB_REQ_SET_FEATURE:
 149:Middlewares/ST/STM32_USB_Device_Library/Core/Src/usbd_ctlreq.c ****       USBD_SetFeature (pdev, req);
 150:Middlewares/ST/STM32_USB_Device_Library/Core/Src/usbd_ctlreq.c ****       break;
 151:Middlewares/ST/STM32_USB_Device_Library/Core/Src/usbd_ctlreq.c **** 
 152:Middlewares/ST/STM32_USB_Device_Library/Core/Src/usbd_ctlreq.c ****     case USB_REQ_CLEAR_FEATURE:
 153:Middlewares/ST/STM32_USB_Device_Library/Core/Src/usbd_ctlreq.c ****       USBD_ClrFeature (pdev, req);
 154:Middlewares/ST/STM32_USB_Device_Library/Core/Src/usbd_ctlreq.c ****       break;
 155:Middlewares/ST/STM32_USB_Device_Library/Core/Src/usbd_ctlreq.c **** 
 156:Middlewares/ST/STM32_USB_Device_Library/Core/Src/usbd_ctlreq.c ****     default:
 157:Middlewares/ST/STM32_USB_Device_Library/Core/Src/usbd_ctlreq.c ****       USBD_CtlError(pdev, req);
 158:Middlewares/ST/STM32_USB_Device_Library/Core/Src/usbd_ctlreq.c ****       break;
 159:Middlewares/ST/STM32_USB_Device_Library/Core/Src/usbd_ctlreq.c ****     }
 160:Middlewares/ST/STM32_USB_Device_Library/Core/Src/usbd_ctlreq.c ****     break;
 161:Middlewares/ST/STM32_USB_Device_Library/Core/Src/usbd_ctlreq.c **** 
 162:Middlewares/ST/STM32_USB_Device_Library/Core/Src/usbd_ctlreq.c ****   default:
 163:Middlewares/ST/STM32_USB_Device_Library/Core/Src/usbd_ctlreq.c ****     USBD_CtlError(pdev, req);
 164:Middlewares/ST/STM32_USB_Device_Library/Core/Src/usbd_ctlreq.c ****     break;
 165:Middlewares/ST/STM32_USB_Device_Library/Core/Src/usbd_ctlreq.c ****   }
 166:Middlewares/ST/STM32_USB_Device_Library/Core/Src/usbd_ctlreq.c **** 
 167:Middlewares/ST/STM32_USB_Device_Library/Core/Src/usbd_ctlreq.c ****   return ret;
 168:Middlewares/ST/STM32_USB_Device_Library/Core/Src/usbd_ctlreq.c **** }
 169:Middlewares/ST/STM32_USB_Device_Library/Core/Src/usbd_ctlreq.c **** 
 170:Middlewares/ST/STM32_USB_Device_Library/Core/Src/usbd_ctlreq.c **** /**
 171:Middlewares/ST/STM32_USB_Device_Library/Core/Src/usbd_ctlreq.c **** * @brief  USBD_StdItfReq
 172:Middlewares/ST/STM32_USB_Device_Library/Core/Src/usbd_ctlreq.c **** *         Handle standard usb interface requests
 173:Middlewares/ST/STM32_USB_Device_Library/Core/Src/usbd_ctlreq.c **** * @param  pdev: device instance
 174:Middlewares/ST/STM32_USB_Device_Library/Core/Src/usbd_ctlreq.c **** * @param  req: usb request
 175:Middlewares/ST/STM32_USB_Device_Library/Core/Src/usbd_ctlreq.c **** * @retval status
 176:Middlewares/ST/STM32_USB_Device_Library/Core/Src/usbd_ctlreq.c **** */
 177:Middlewares/ST/STM32_USB_Device_Library/Core/Src/usbd_ctlreq.c **** USBD_StatusTypeDef  USBD_StdItfReq (USBD_HandleTypeDef *pdev , USBD_SetupReqTypedef  *req)
 178:Middlewares/ST/STM32_USB_Device_Library/Core/Src/usbd_ctlreq.c **** {
 179:Middlewares/ST/STM32_USB_Device_Library/Core/Src/usbd_ctlreq.c ****   USBD_StatusTypeDef ret = USBD_OK;
 180:Middlewares/ST/STM32_USB_Device_Library/Core/Src/usbd_ctlreq.c **** 
 181:Middlewares/ST/STM32_USB_Device_Library/Core/Src/usbd_ctlreq.c ****   switch (req->bmRequest & USB_REQ_TYPE_MASK)
 182:Middlewares/ST/STM32_USB_Device_Library/Core/Src/usbd_ctlreq.c ****   {
 183:Middlewares/ST/STM32_USB_Device_Library/Core/Src/usbd_ctlreq.c ****   case USB_REQ_TYPE_CLASS:
 184:Middlewares/ST/STM32_USB_Device_Library/Core/Src/usbd_ctlreq.c ****   case USB_REQ_TYPE_VENDOR:
 185:Middlewares/ST/STM32_USB_Device_Library/Core/Src/usbd_ctlreq.c ****   case USB_REQ_TYPE_STANDARD:
 186:Middlewares/ST/STM32_USB_Device_Library/Core/Src/usbd_ctlreq.c ****     switch (pdev->dev_state)
 187:Middlewares/ST/STM32_USB_Device_Library/Core/Src/usbd_ctlreq.c ****     {
 188:Middlewares/ST/STM32_USB_Device_Library/Core/Src/usbd_ctlreq.c ****     case USBD_STATE_DEFAULT:
 189:Middlewares/ST/STM32_USB_Device_Library/Core/Src/usbd_ctlreq.c ****     case USBD_STATE_ADDRESSED:
 190:Middlewares/ST/STM32_USB_Device_Library/Core/Src/usbd_ctlreq.c ****     case USBD_STATE_CONFIGURED:
 191:Middlewares/ST/STM32_USB_Device_Library/Core/Src/usbd_ctlreq.c **** 
 192:Middlewares/ST/STM32_USB_Device_Library/Core/Src/usbd_ctlreq.c ****       if (LOBYTE(req->wIndex) <= USBD_MAX_NUM_INTERFACES)
 193:Middlewares/ST/STM32_USB_Device_Library/Core/Src/usbd_ctlreq.c ****       {
 194:Middlewares/ST/STM32_USB_Device_Library/Core/Src/usbd_ctlreq.c ****         ret = (USBD_StatusTypeDef)pdev->pClass->Setup (pdev, req);
 195:Middlewares/ST/STM32_USB_Device_Library/Core/Src/usbd_ctlreq.c **** 
 196:Middlewares/ST/STM32_USB_Device_Library/Core/Src/usbd_ctlreq.c ****         if ((req->wLength == 0U) && (ret == USBD_OK))
 197:Middlewares/ST/STM32_USB_Device_Library/Core/Src/usbd_ctlreq.c ****         {
 198:Middlewares/ST/STM32_USB_Device_Library/Core/Src/usbd_ctlreq.c ****           USBD_CtlSendStatus(pdev);
 199:Middlewares/ST/STM32_USB_Device_Library/Core/Src/usbd_ctlreq.c ****         }
 200:Middlewares/ST/STM32_USB_Device_Library/Core/Src/usbd_ctlreq.c ****       }
 201:Middlewares/ST/STM32_USB_Device_Library/Core/Src/usbd_ctlreq.c ****       else
ARM GAS  /var/folders/jr/lt9tb7vj2871x9rxdxc0hz4h0000gn/T//ccaStH1G.s 			page 5


 202:Middlewares/ST/STM32_USB_Device_Library/Core/Src/usbd_ctlreq.c ****       {
 203:Middlewares/ST/STM32_USB_Device_Library/Core/Src/usbd_ctlreq.c ****         USBD_CtlError(pdev, req);
 204:Middlewares/ST/STM32_USB_Device_Library/Core/Src/usbd_ctlreq.c ****       }
 205:Middlewares/ST/STM32_USB_Device_Library/Core/Src/usbd_ctlreq.c ****       break;
 206:Middlewares/ST/STM32_USB_Device_Library/Core/Src/usbd_ctlreq.c **** 
 207:Middlewares/ST/STM32_USB_Device_Library/Core/Src/usbd_ctlreq.c ****     default:
 208:Middlewares/ST/STM32_USB_Device_Library/Core/Src/usbd_ctlreq.c ****       USBD_CtlError(pdev, req);
 209:Middlewares/ST/STM32_USB_Device_Library/Core/Src/usbd_ctlreq.c ****       break;
 210:Middlewares/ST/STM32_USB_Device_Library/Core/Src/usbd_ctlreq.c ****     }
 211:Middlewares/ST/STM32_USB_Device_Library/Core/Src/usbd_ctlreq.c ****     break;
 212:Middlewares/ST/STM32_USB_Device_Library/Core/Src/usbd_ctlreq.c **** 
 213:Middlewares/ST/STM32_USB_Device_Library/Core/Src/usbd_ctlreq.c ****   default:
 214:Middlewares/ST/STM32_USB_Device_Library/Core/Src/usbd_ctlreq.c ****     USBD_CtlError(pdev, req);
 215:Middlewares/ST/STM32_USB_Device_Library/Core/Src/usbd_ctlreq.c ****     break;
 216:Middlewares/ST/STM32_USB_Device_Library/Core/Src/usbd_ctlreq.c ****   }
 217:Middlewares/ST/STM32_USB_Device_Library/Core/Src/usbd_ctlreq.c **** 
 218:Middlewares/ST/STM32_USB_Device_Library/Core/Src/usbd_ctlreq.c ****   return USBD_OK;
 219:Middlewares/ST/STM32_USB_Device_Library/Core/Src/usbd_ctlreq.c **** }
 220:Middlewares/ST/STM32_USB_Device_Library/Core/Src/usbd_ctlreq.c **** 
 221:Middlewares/ST/STM32_USB_Device_Library/Core/Src/usbd_ctlreq.c **** /**
 222:Middlewares/ST/STM32_USB_Device_Library/Core/Src/usbd_ctlreq.c **** * @brief  USBD_StdEPReq
 223:Middlewares/ST/STM32_USB_Device_Library/Core/Src/usbd_ctlreq.c **** *         Handle standard usb endpoint requests
 224:Middlewares/ST/STM32_USB_Device_Library/Core/Src/usbd_ctlreq.c **** * @param  pdev: device instance
 225:Middlewares/ST/STM32_USB_Device_Library/Core/Src/usbd_ctlreq.c **** * @param  req: usb request
 226:Middlewares/ST/STM32_USB_Device_Library/Core/Src/usbd_ctlreq.c **** * @retval status
 227:Middlewares/ST/STM32_USB_Device_Library/Core/Src/usbd_ctlreq.c **** */
 228:Middlewares/ST/STM32_USB_Device_Library/Core/Src/usbd_ctlreq.c **** USBD_StatusTypeDef  USBD_StdEPReq (USBD_HandleTypeDef *pdev , USBD_SetupReqTypedef  *req)
 229:Middlewares/ST/STM32_USB_Device_Library/Core/Src/usbd_ctlreq.c **** {
 230:Middlewares/ST/STM32_USB_Device_Library/Core/Src/usbd_ctlreq.c **** 
 231:Middlewares/ST/STM32_USB_Device_Library/Core/Src/usbd_ctlreq.c ****   uint8_t   ep_addr;
 232:Middlewares/ST/STM32_USB_Device_Library/Core/Src/usbd_ctlreq.c ****   USBD_StatusTypeDef ret = USBD_OK;
 233:Middlewares/ST/STM32_USB_Device_Library/Core/Src/usbd_ctlreq.c ****   USBD_EndpointTypeDef   *pep;
 234:Middlewares/ST/STM32_USB_Device_Library/Core/Src/usbd_ctlreq.c ****   ep_addr  = LOBYTE(req->wIndex);
 235:Middlewares/ST/STM32_USB_Device_Library/Core/Src/usbd_ctlreq.c **** 
 236:Middlewares/ST/STM32_USB_Device_Library/Core/Src/usbd_ctlreq.c ****   switch (req->bmRequest & USB_REQ_TYPE_MASK)
 237:Middlewares/ST/STM32_USB_Device_Library/Core/Src/usbd_ctlreq.c ****   {
 238:Middlewares/ST/STM32_USB_Device_Library/Core/Src/usbd_ctlreq.c **** 
 239:Middlewares/ST/STM32_USB_Device_Library/Core/Src/usbd_ctlreq.c ****   case USB_REQ_TYPE_CLASS:
 240:Middlewares/ST/STM32_USB_Device_Library/Core/Src/usbd_ctlreq.c ****   case USB_REQ_TYPE_VENDOR:
 241:Middlewares/ST/STM32_USB_Device_Library/Core/Src/usbd_ctlreq.c ****     pdev->pClass->Setup (pdev, req);
 242:Middlewares/ST/STM32_USB_Device_Library/Core/Src/usbd_ctlreq.c ****     break;
 243:Middlewares/ST/STM32_USB_Device_Library/Core/Src/usbd_ctlreq.c **** 
 244:Middlewares/ST/STM32_USB_Device_Library/Core/Src/usbd_ctlreq.c ****   case USB_REQ_TYPE_STANDARD:
 245:Middlewares/ST/STM32_USB_Device_Library/Core/Src/usbd_ctlreq.c ****     /* Check if it is a class request */
 246:Middlewares/ST/STM32_USB_Device_Library/Core/Src/usbd_ctlreq.c ****     if ((req->bmRequest & 0x60U) == 0x20U)
 247:Middlewares/ST/STM32_USB_Device_Library/Core/Src/usbd_ctlreq.c ****     {
 248:Middlewares/ST/STM32_USB_Device_Library/Core/Src/usbd_ctlreq.c ****       ret = (USBD_StatusTypeDef)pdev->pClass->Setup (pdev, req);
 249:Middlewares/ST/STM32_USB_Device_Library/Core/Src/usbd_ctlreq.c **** 
 250:Middlewares/ST/STM32_USB_Device_Library/Core/Src/usbd_ctlreq.c ****       return ret;
 251:Middlewares/ST/STM32_USB_Device_Library/Core/Src/usbd_ctlreq.c ****     }
 252:Middlewares/ST/STM32_USB_Device_Library/Core/Src/usbd_ctlreq.c **** 
 253:Middlewares/ST/STM32_USB_Device_Library/Core/Src/usbd_ctlreq.c ****     switch (req->bRequest)
 254:Middlewares/ST/STM32_USB_Device_Library/Core/Src/usbd_ctlreq.c ****     {
 255:Middlewares/ST/STM32_USB_Device_Library/Core/Src/usbd_ctlreq.c **** 
 256:Middlewares/ST/STM32_USB_Device_Library/Core/Src/usbd_ctlreq.c ****     case USB_REQ_SET_FEATURE :
 257:Middlewares/ST/STM32_USB_Device_Library/Core/Src/usbd_ctlreq.c **** 
 258:Middlewares/ST/STM32_USB_Device_Library/Core/Src/usbd_ctlreq.c ****       switch (pdev->dev_state)
ARM GAS  /var/folders/jr/lt9tb7vj2871x9rxdxc0hz4h0000gn/T//ccaStH1G.s 			page 6


 259:Middlewares/ST/STM32_USB_Device_Library/Core/Src/usbd_ctlreq.c ****       {
 260:Middlewares/ST/STM32_USB_Device_Library/Core/Src/usbd_ctlreq.c ****       case USBD_STATE_ADDRESSED:
 261:Middlewares/ST/STM32_USB_Device_Library/Core/Src/usbd_ctlreq.c ****         if ((ep_addr != 0x00U) && (ep_addr != 0x80U))
 262:Middlewares/ST/STM32_USB_Device_Library/Core/Src/usbd_ctlreq.c ****         {
 263:Middlewares/ST/STM32_USB_Device_Library/Core/Src/usbd_ctlreq.c ****           USBD_LL_StallEP(pdev, ep_addr);
 264:Middlewares/ST/STM32_USB_Device_Library/Core/Src/usbd_ctlreq.c ****           USBD_LL_StallEP(pdev, 0x80U);
 265:Middlewares/ST/STM32_USB_Device_Library/Core/Src/usbd_ctlreq.c ****         }
 266:Middlewares/ST/STM32_USB_Device_Library/Core/Src/usbd_ctlreq.c ****         else
 267:Middlewares/ST/STM32_USB_Device_Library/Core/Src/usbd_ctlreq.c ****         {
 268:Middlewares/ST/STM32_USB_Device_Library/Core/Src/usbd_ctlreq.c ****           USBD_CtlError(pdev, req);
 269:Middlewares/ST/STM32_USB_Device_Library/Core/Src/usbd_ctlreq.c ****         }
 270:Middlewares/ST/STM32_USB_Device_Library/Core/Src/usbd_ctlreq.c ****         break;
 271:Middlewares/ST/STM32_USB_Device_Library/Core/Src/usbd_ctlreq.c **** 
 272:Middlewares/ST/STM32_USB_Device_Library/Core/Src/usbd_ctlreq.c ****       case USBD_STATE_CONFIGURED:
 273:Middlewares/ST/STM32_USB_Device_Library/Core/Src/usbd_ctlreq.c ****         if (req->wValue == USB_FEATURE_EP_HALT)
 274:Middlewares/ST/STM32_USB_Device_Library/Core/Src/usbd_ctlreq.c ****         {
 275:Middlewares/ST/STM32_USB_Device_Library/Core/Src/usbd_ctlreq.c ****           if ((ep_addr != 0x00U) && (ep_addr != 0x80U) && (req->wLength == 0x00U))
 276:Middlewares/ST/STM32_USB_Device_Library/Core/Src/usbd_ctlreq.c ****           {
 277:Middlewares/ST/STM32_USB_Device_Library/Core/Src/usbd_ctlreq.c ****             USBD_LL_StallEP(pdev, ep_addr);
 278:Middlewares/ST/STM32_USB_Device_Library/Core/Src/usbd_ctlreq.c ****           }
 279:Middlewares/ST/STM32_USB_Device_Library/Core/Src/usbd_ctlreq.c ****         }
 280:Middlewares/ST/STM32_USB_Device_Library/Core/Src/usbd_ctlreq.c ****         USBD_CtlSendStatus(pdev);
 281:Middlewares/ST/STM32_USB_Device_Library/Core/Src/usbd_ctlreq.c **** 
 282:Middlewares/ST/STM32_USB_Device_Library/Core/Src/usbd_ctlreq.c ****         break;
 283:Middlewares/ST/STM32_USB_Device_Library/Core/Src/usbd_ctlreq.c **** 
 284:Middlewares/ST/STM32_USB_Device_Library/Core/Src/usbd_ctlreq.c ****       default:
 285:Middlewares/ST/STM32_USB_Device_Library/Core/Src/usbd_ctlreq.c ****         USBD_CtlError(pdev, req);
 286:Middlewares/ST/STM32_USB_Device_Library/Core/Src/usbd_ctlreq.c ****         break;
 287:Middlewares/ST/STM32_USB_Device_Library/Core/Src/usbd_ctlreq.c ****       }
 288:Middlewares/ST/STM32_USB_Device_Library/Core/Src/usbd_ctlreq.c ****       break;
 289:Middlewares/ST/STM32_USB_Device_Library/Core/Src/usbd_ctlreq.c **** 
 290:Middlewares/ST/STM32_USB_Device_Library/Core/Src/usbd_ctlreq.c ****     case USB_REQ_CLEAR_FEATURE :
 291:Middlewares/ST/STM32_USB_Device_Library/Core/Src/usbd_ctlreq.c **** 
 292:Middlewares/ST/STM32_USB_Device_Library/Core/Src/usbd_ctlreq.c ****       switch (pdev->dev_state)
 293:Middlewares/ST/STM32_USB_Device_Library/Core/Src/usbd_ctlreq.c ****       {
 294:Middlewares/ST/STM32_USB_Device_Library/Core/Src/usbd_ctlreq.c ****       case USBD_STATE_ADDRESSED:
 295:Middlewares/ST/STM32_USB_Device_Library/Core/Src/usbd_ctlreq.c ****         if ((ep_addr != 0x00U) && (ep_addr != 0x80U))
 296:Middlewares/ST/STM32_USB_Device_Library/Core/Src/usbd_ctlreq.c ****         {
 297:Middlewares/ST/STM32_USB_Device_Library/Core/Src/usbd_ctlreq.c ****           USBD_LL_StallEP(pdev, ep_addr);
 298:Middlewares/ST/STM32_USB_Device_Library/Core/Src/usbd_ctlreq.c ****           USBD_LL_StallEP(pdev, 0x80U);
 299:Middlewares/ST/STM32_USB_Device_Library/Core/Src/usbd_ctlreq.c ****         }
 300:Middlewares/ST/STM32_USB_Device_Library/Core/Src/usbd_ctlreq.c ****         else
 301:Middlewares/ST/STM32_USB_Device_Library/Core/Src/usbd_ctlreq.c ****         {
 302:Middlewares/ST/STM32_USB_Device_Library/Core/Src/usbd_ctlreq.c ****           USBD_CtlError(pdev, req);
 303:Middlewares/ST/STM32_USB_Device_Library/Core/Src/usbd_ctlreq.c ****         }
 304:Middlewares/ST/STM32_USB_Device_Library/Core/Src/usbd_ctlreq.c ****         break;
 305:Middlewares/ST/STM32_USB_Device_Library/Core/Src/usbd_ctlreq.c **** 
 306:Middlewares/ST/STM32_USB_Device_Library/Core/Src/usbd_ctlreq.c ****       case USBD_STATE_CONFIGURED:
 307:Middlewares/ST/STM32_USB_Device_Library/Core/Src/usbd_ctlreq.c ****         if (req->wValue == USB_FEATURE_EP_HALT)
 308:Middlewares/ST/STM32_USB_Device_Library/Core/Src/usbd_ctlreq.c ****         {
 309:Middlewares/ST/STM32_USB_Device_Library/Core/Src/usbd_ctlreq.c ****           if ((ep_addr & 0x7FU) != 0x00U)
 310:Middlewares/ST/STM32_USB_Device_Library/Core/Src/usbd_ctlreq.c ****           {
 311:Middlewares/ST/STM32_USB_Device_Library/Core/Src/usbd_ctlreq.c ****             USBD_LL_ClearStallEP(pdev, ep_addr);
 312:Middlewares/ST/STM32_USB_Device_Library/Core/Src/usbd_ctlreq.c ****           }
 313:Middlewares/ST/STM32_USB_Device_Library/Core/Src/usbd_ctlreq.c ****           USBD_CtlSendStatus(pdev);
 314:Middlewares/ST/STM32_USB_Device_Library/Core/Src/usbd_ctlreq.c ****         }
 315:Middlewares/ST/STM32_USB_Device_Library/Core/Src/usbd_ctlreq.c ****         break;
ARM GAS  /var/folders/jr/lt9tb7vj2871x9rxdxc0hz4h0000gn/T//ccaStH1G.s 			page 7


 316:Middlewares/ST/STM32_USB_Device_Library/Core/Src/usbd_ctlreq.c **** 
 317:Middlewares/ST/STM32_USB_Device_Library/Core/Src/usbd_ctlreq.c ****       default:
 318:Middlewares/ST/STM32_USB_Device_Library/Core/Src/usbd_ctlreq.c ****         USBD_CtlError(pdev, req);
 319:Middlewares/ST/STM32_USB_Device_Library/Core/Src/usbd_ctlreq.c ****         break;
 320:Middlewares/ST/STM32_USB_Device_Library/Core/Src/usbd_ctlreq.c ****       }
 321:Middlewares/ST/STM32_USB_Device_Library/Core/Src/usbd_ctlreq.c ****       break;
 322:Middlewares/ST/STM32_USB_Device_Library/Core/Src/usbd_ctlreq.c **** 
 323:Middlewares/ST/STM32_USB_Device_Library/Core/Src/usbd_ctlreq.c ****     case USB_REQ_GET_STATUS:
 324:Middlewares/ST/STM32_USB_Device_Library/Core/Src/usbd_ctlreq.c ****       switch (pdev->dev_state)
 325:Middlewares/ST/STM32_USB_Device_Library/Core/Src/usbd_ctlreq.c ****       {
 326:Middlewares/ST/STM32_USB_Device_Library/Core/Src/usbd_ctlreq.c ****       case USBD_STATE_ADDRESSED:
 327:Middlewares/ST/STM32_USB_Device_Library/Core/Src/usbd_ctlreq.c ****         if ((ep_addr != 0x00U) && (ep_addr != 0x80U))
 328:Middlewares/ST/STM32_USB_Device_Library/Core/Src/usbd_ctlreq.c ****         {
 329:Middlewares/ST/STM32_USB_Device_Library/Core/Src/usbd_ctlreq.c ****           USBD_CtlError(pdev, req);
 330:Middlewares/ST/STM32_USB_Device_Library/Core/Src/usbd_ctlreq.c ****           break;
 331:Middlewares/ST/STM32_USB_Device_Library/Core/Src/usbd_ctlreq.c ****         }
 332:Middlewares/ST/STM32_USB_Device_Library/Core/Src/usbd_ctlreq.c ****         pep = ((ep_addr & 0x80U) == 0x80U) ? &pdev->ep_in[ep_addr & 0x7FU]:\
 333:Middlewares/ST/STM32_USB_Device_Library/Core/Src/usbd_ctlreq.c ****           &pdev->ep_out[ep_addr & 0x7FU];
 334:Middlewares/ST/STM32_USB_Device_Library/Core/Src/usbd_ctlreq.c **** 
 335:Middlewares/ST/STM32_USB_Device_Library/Core/Src/usbd_ctlreq.c ****           pep->status = 0x0000U;
 336:Middlewares/ST/STM32_USB_Device_Library/Core/Src/usbd_ctlreq.c **** 
 337:Middlewares/ST/STM32_USB_Device_Library/Core/Src/usbd_ctlreq.c ****           USBD_CtlSendData (pdev, (uint8_t *)(void *)&pep->status, 2U);
 338:Middlewares/ST/STM32_USB_Device_Library/Core/Src/usbd_ctlreq.c ****           break;
 339:Middlewares/ST/STM32_USB_Device_Library/Core/Src/usbd_ctlreq.c **** 
 340:Middlewares/ST/STM32_USB_Device_Library/Core/Src/usbd_ctlreq.c ****       case USBD_STATE_CONFIGURED:
 341:Middlewares/ST/STM32_USB_Device_Library/Core/Src/usbd_ctlreq.c ****         if((ep_addr & 0x80U) == 0x80U)
 342:Middlewares/ST/STM32_USB_Device_Library/Core/Src/usbd_ctlreq.c ****         {
 343:Middlewares/ST/STM32_USB_Device_Library/Core/Src/usbd_ctlreq.c ****           if (pdev->ep_in[ep_addr & 0xFU].is_used == 0U)
 344:Middlewares/ST/STM32_USB_Device_Library/Core/Src/usbd_ctlreq.c ****           {
 345:Middlewares/ST/STM32_USB_Device_Library/Core/Src/usbd_ctlreq.c ****             USBD_CtlError(pdev, req);
 346:Middlewares/ST/STM32_USB_Device_Library/Core/Src/usbd_ctlreq.c ****             break;
 347:Middlewares/ST/STM32_USB_Device_Library/Core/Src/usbd_ctlreq.c ****           }
 348:Middlewares/ST/STM32_USB_Device_Library/Core/Src/usbd_ctlreq.c ****         }
 349:Middlewares/ST/STM32_USB_Device_Library/Core/Src/usbd_ctlreq.c ****         else
 350:Middlewares/ST/STM32_USB_Device_Library/Core/Src/usbd_ctlreq.c ****         {
 351:Middlewares/ST/STM32_USB_Device_Library/Core/Src/usbd_ctlreq.c ****           if (pdev->ep_out[ep_addr & 0xFU].is_used == 0U)
 352:Middlewares/ST/STM32_USB_Device_Library/Core/Src/usbd_ctlreq.c ****           {
 353:Middlewares/ST/STM32_USB_Device_Library/Core/Src/usbd_ctlreq.c ****             USBD_CtlError(pdev, req);
 354:Middlewares/ST/STM32_USB_Device_Library/Core/Src/usbd_ctlreq.c ****             break;
 355:Middlewares/ST/STM32_USB_Device_Library/Core/Src/usbd_ctlreq.c ****           }
 356:Middlewares/ST/STM32_USB_Device_Library/Core/Src/usbd_ctlreq.c ****         }
 357:Middlewares/ST/STM32_USB_Device_Library/Core/Src/usbd_ctlreq.c **** 
 358:Middlewares/ST/STM32_USB_Device_Library/Core/Src/usbd_ctlreq.c ****         pep = ((ep_addr & 0x80U) == 0x80U) ? &pdev->ep_in[ep_addr & 0x7FU]:\
 359:Middlewares/ST/STM32_USB_Device_Library/Core/Src/usbd_ctlreq.c ****           &pdev->ep_out[ep_addr & 0x7FU];
 360:Middlewares/ST/STM32_USB_Device_Library/Core/Src/usbd_ctlreq.c **** 
 361:Middlewares/ST/STM32_USB_Device_Library/Core/Src/usbd_ctlreq.c ****           if ((ep_addr == 0x00U) || (ep_addr == 0x80U))
 362:Middlewares/ST/STM32_USB_Device_Library/Core/Src/usbd_ctlreq.c ****           {
 363:Middlewares/ST/STM32_USB_Device_Library/Core/Src/usbd_ctlreq.c ****             pep->status = 0x0000U;
 364:Middlewares/ST/STM32_USB_Device_Library/Core/Src/usbd_ctlreq.c ****           }
 365:Middlewares/ST/STM32_USB_Device_Library/Core/Src/usbd_ctlreq.c ****           else if(USBD_LL_IsStallEP(pdev, ep_addr))
 366:Middlewares/ST/STM32_USB_Device_Library/Core/Src/usbd_ctlreq.c ****           {
 367:Middlewares/ST/STM32_USB_Device_Library/Core/Src/usbd_ctlreq.c ****             pep->status = 0x0001U;
 368:Middlewares/ST/STM32_USB_Device_Library/Core/Src/usbd_ctlreq.c ****           }
 369:Middlewares/ST/STM32_USB_Device_Library/Core/Src/usbd_ctlreq.c ****           else
 370:Middlewares/ST/STM32_USB_Device_Library/Core/Src/usbd_ctlreq.c ****           {
 371:Middlewares/ST/STM32_USB_Device_Library/Core/Src/usbd_ctlreq.c ****             pep->status = 0x0000U;
 372:Middlewares/ST/STM32_USB_Device_Library/Core/Src/usbd_ctlreq.c ****           }
ARM GAS  /var/folders/jr/lt9tb7vj2871x9rxdxc0hz4h0000gn/T//ccaStH1G.s 			page 8


 373:Middlewares/ST/STM32_USB_Device_Library/Core/Src/usbd_ctlreq.c **** 
 374:Middlewares/ST/STM32_USB_Device_Library/Core/Src/usbd_ctlreq.c ****           USBD_CtlSendData (pdev, (uint8_t *)(void *)&pep->status, 2U);
 375:Middlewares/ST/STM32_USB_Device_Library/Core/Src/usbd_ctlreq.c ****           break;
 376:Middlewares/ST/STM32_USB_Device_Library/Core/Src/usbd_ctlreq.c **** 
 377:Middlewares/ST/STM32_USB_Device_Library/Core/Src/usbd_ctlreq.c ****       default:
 378:Middlewares/ST/STM32_USB_Device_Library/Core/Src/usbd_ctlreq.c ****         USBD_CtlError(pdev, req);
 379:Middlewares/ST/STM32_USB_Device_Library/Core/Src/usbd_ctlreq.c ****         break;
 380:Middlewares/ST/STM32_USB_Device_Library/Core/Src/usbd_ctlreq.c ****       }
 381:Middlewares/ST/STM32_USB_Device_Library/Core/Src/usbd_ctlreq.c ****       break;
 382:Middlewares/ST/STM32_USB_Device_Library/Core/Src/usbd_ctlreq.c **** 
 383:Middlewares/ST/STM32_USB_Device_Library/Core/Src/usbd_ctlreq.c ****     default:
 384:Middlewares/ST/STM32_USB_Device_Library/Core/Src/usbd_ctlreq.c ****       USBD_CtlError(pdev, req);
 385:Middlewares/ST/STM32_USB_Device_Library/Core/Src/usbd_ctlreq.c ****       break;
 386:Middlewares/ST/STM32_USB_Device_Library/Core/Src/usbd_ctlreq.c ****     }
 387:Middlewares/ST/STM32_USB_Device_Library/Core/Src/usbd_ctlreq.c ****     break;
 388:Middlewares/ST/STM32_USB_Device_Library/Core/Src/usbd_ctlreq.c **** 
 389:Middlewares/ST/STM32_USB_Device_Library/Core/Src/usbd_ctlreq.c ****   default:
 390:Middlewares/ST/STM32_USB_Device_Library/Core/Src/usbd_ctlreq.c ****     USBD_CtlError(pdev, req);
 391:Middlewares/ST/STM32_USB_Device_Library/Core/Src/usbd_ctlreq.c ****     break;
 392:Middlewares/ST/STM32_USB_Device_Library/Core/Src/usbd_ctlreq.c ****   }
 393:Middlewares/ST/STM32_USB_Device_Library/Core/Src/usbd_ctlreq.c **** 
 394:Middlewares/ST/STM32_USB_Device_Library/Core/Src/usbd_ctlreq.c ****   return ret;
 395:Middlewares/ST/STM32_USB_Device_Library/Core/Src/usbd_ctlreq.c **** }
 396:Middlewares/ST/STM32_USB_Device_Library/Core/Src/usbd_ctlreq.c **** /**
 397:Middlewares/ST/STM32_USB_Device_Library/Core/Src/usbd_ctlreq.c **** * @brief  USBD_GetDescriptor
 398:Middlewares/ST/STM32_USB_Device_Library/Core/Src/usbd_ctlreq.c **** *         Handle Get Descriptor requests
 399:Middlewares/ST/STM32_USB_Device_Library/Core/Src/usbd_ctlreq.c **** * @param  pdev: device instance
 400:Middlewares/ST/STM32_USB_Device_Library/Core/Src/usbd_ctlreq.c **** * @param  req: usb request
 401:Middlewares/ST/STM32_USB_Device_Library/Core/Src/usbd_ctlreq.c **** * @retval status
 402:Middlewares/ST/STM32_USB_Device_Library/Core/Src/usbd_ctlreq.c **** */
 403:Middlewares/ST/STM32_USB_Device_Library/Core/Src/usbd_ctlreq.c **** static void USBD_GetDescriptor(USBD_HandleTypeDef *pdev ,
 404:Middlewares/ST/STM32_USB_Device_Library/Core/Src/usbd_ctlreq.c ****                                USBD_SetupReqTypedef *req)
 405:Middlewares/ST/STM32_USB_Device_Library/Core/Src/usbd_ctlreq.c **** {
 406:Middlewares/ST/STM32_USB_Device_Library/Core/Src/usbd_ctlreq.c ****   uint16_t len;
 407:Middlewares/ST/STM32_USB_Device_Library/Core/Src/usbd_ctlreq.c ****   uint8_t *pbuf;
 408:Middlewares/ST/STM32_USB_Device_Library/Core/Src/usbd_ctlreq.c **** 
 409:Middlewares/ST/STM32_USB_Device_Library/Core/Src/usbd_ctlreq.c **** 
 410:Middlewares/ST/STM32_USB_Device_Library/Core/Src/usbd_ctlreq.c ****   switch (req->wValue >> 8)
 411:Middlewares/ST/STM32_USB_Device_Library/Core/Src/usbd_ctlreq.c ****   {
 412:Middlewares/ST/STM32_USB_Device_Library/Core/Src/usbd_ctlreq.c **** #if (USBD_LPM_ENABLED == 1U)
 413:Middlewares/ST/STM32_USB_Device_Library/Core/Src/usbd_ctlreq.c ****   case USB_DESC_TYPE_BOS:
 414:Middlewares/ST/STM32_USB_Device_Library/Core/Src/usbd_ctlreq.c ****     pbuf = pdev->pDesc->GetBOSDescriptor(pdev->dev_speed, &len);
 415:Middlewares/ST/STM32_USB_Device_Library/Core/Src/usbd_ctlreq.c ****     break;
 416:Middlewares/ST/STM32_USB_Device_Library/Core/Src/usbd_ctlreq.c **** #endif
 417:Middlewares/ST/STM32_USB_Device_Library/Core/Src/usbd_ctlreq.c ****   case USB_DESC_TYPE_DEVICE:
 418:Middlewares/ST/STM32_USB_Device_Library/Core/Src/usbd_ctlreq.c ****     pbuf = pdev->pDesc->GetDeviceDescriptor(pdev->dev_speed, &len);
 419:Middlewares/ST/STM32_USB_Device_Library/Core/Src/usbd_ctlreq.c ****     break;
 420:Middlewares/ST/STM32_USB_Device_Library/Core/Src/usbd_ctlreq.c **** 
 421:Middlewares/ST/STM32_USB_Device_Library/Core/Src/usbd_ctlreq.c ****   case USB_DESC_TYPE_CONFIGURATION:
 422:Middlewares/ST/STM32_USB_Device_Library/Core/Src/usbd_ctlreq.c ****     if(pdev->dev_speed == USBD_SPEED_HIGH )
 423:Middlewares/ST/STM32_USB_Device_Library/Core/Src/usbd_ctlreq.c ****     {
 424:Middlewares/ST/STM32_USB_Device_Library/Core/Src/usbd_ctlreq.c ****       pbuf   = (uint8_t *)pdev->pClass->GetHSConfigDescriptor(&len);
 425:Middlewares/ST/STM32_USB_Device_Library/Core/Src/usbd_ctlreq.c ****       pbuf[1] = USB_DESC_TYPE_CONFIGURATION;
 426:Middlewares/ST/STM32_USB_Device_Library/Core/Src/usbd_ctlreq.c ****     }
 427:Middlewares/ST/STM32_USB_Device_Library/Core/Src/usbd_ctlreq.c ****     else
 428:Middlewares/ST/STM32_USB_Device_Library/Core/Src/usbd_ctlreq.c ****     {
 429:Middlewares/ST/STM32_USB_Device_Library/Core/Src/usbd_ctlreq.c ****       pbuf   = (uint8_t *)pdev->pClass->GetFSConfigDescriptor(&len);
ARM GAS  /var/folders/jr/lt9tb7vj2871x9rxdxc0hz4h0000gn/T//ccaStH1G.s 			page 9


 430:Middlewares/ST/STM32_USB_Device_Library/Core/Src/usbd_ctlreq.c ****       pbuf[1] = USB_DESC_TYPE_CONFIGURATION;
 431:Middlewares/ST/STM32_USB_Device_Library/Core/Src/usbd_ctlreq.c ****     }
 432:Middlewares/ST/STM32_USB_Device_Library/Core/Src/usbd_ctlreq.c ****     break;
 433:Middlewares/ST/STM32_USB_Device_Library/Core/Src/usbd_ctlreq.c **** 
 434:Middlewares/ST/STM32_USB_Device_Library/Core/Src/usbd_ctlreq.c ****   case USB_DESC_TYPE_STRING:
 435:Middlewares/ST/STM32_USB_Device_Library/Core/Src/usbd_ctlreq.c ****     switch ((uint8_t)(req->wValue))
 436:Middlewares/ST/STM32_USB_Device_Library/Core/Src/usbd_ctlreq.c ****     {
 437:Middlewares/ST/STM32_USB_Device_Library/Core/Src/usbd_ctlreq.c ****     case USBD_IDX_LANGID_STR:
 438:Middlewares/ST/STM32_USB_Device_Library/Core/Src/usbd_ctlreq.c ****      pbuf = pdev->pDesc->GetLangIDStrDescriptor(pdev->dev_speed, &len);
 439:Middlewares/ST/STM32_USB_Device_Library/Core/Src/usbd_ctlreq.c ****       break;
 440:Middlewares/ST/STM32_USB_Device_Library/Core/Src/usbd_ctlreq.c **** 
 441:Middlewares/ST/STM32_USB_Device_Library/Core/Src/usbd_ctlreq.c ****     case USBD_IDX_MFC_STR:
 442:Middlewares/ST/STM32_USB_Device_Library/Core/Src/usbd_ctlreq.c ****       pbuf = pdev->pDesc->GetManufacturerStrDescriptor(pdev->dev_speed, &len);
 443:Middlewares/ST/STM32_USB_Device_Library/Core/Src/usbd_ctlreq.c ****       break;
 444:Middlewares/ST/STM32_USB_Device_Library/Core/Src/usbd_ctlreq.c **** 
 445:Middlewares/ST/STM32_USB_Device_Library/Core/Src/usbd_ctlreq.c ****     case USBD_IDX_PRODUCT_STR:
 446:Middlewares/ST/STM32_USB_Device_Library/Core/Src/usbd_ctlreq.c ****       pbuf = pdev->pDesc->GetProductStrDescriptor(pdev->dev_speed, &len);
 447:Middlewares/ST/STM32_USB_Device_Library/Core/Src/usbd_ctlreq.c ****       break;
 448:Middlewares/ST/STM32_USB_Device_Library/Core/Src/usbd_ctlreq.c **** 
 449:Middlewares/ST/STM32_USB_Device_Library/Core/Src/usbd_ctlreq.c ****     case USBD_IDX_SERIAL_STR:
 450:Middlewares/ST/STM32_USB_Device_Library/Core/Src/usbd_ctlreq.c ****       pbuf = pdev->pDesc->GetSerialStrDescriptor(pdev->dev_speed, &len);
 451:Middlewares/ST/STM32_USB_Device_Library/Core/Src/usbd_ctlreq.c ****       break;
 452:Middlewares/ST/STM32_USB_Device_Library/Core/Src/usbd_ctlreq.c **** 
 453:Middlewares/ST/STM32_USB_Device_Library/Core/Src/usbd_ctlreq.c ****     case USBD_IDX_CONFIG_STR:
 454:Middlewares/ST/STM32_USB_Device_Library/Core/Src/usbd_ctlreq.c ****       pbuf = pdev->pDesc->GetConfigurationStrDescriptor(pdev->dev_speed, &len);
 455:Middlewares/ST/STM32_USB_Device_Library/Core/Src/usbd_ctlreq.c ****       break;
 456:Middlewares/ST/STM32_USB_Device_Library/Core/Src/usbd_ctlreq.c **** 
 457:Middlewares/ST/STM32_USB_Device_Library/Core/Src/usbd_ctlreq.c ****     case USBD_IDX_INTERFACE_STR:
 458:Middlewares/ST/STM32_USB_Device_Library/Core/Src/usbd_ctlreq.c ****       pbuf = pdev->pDesc->GetInterfaceStrDescriptor(pdev->dev_speed, &len);
 459:Middlewares/ST/STM32_USB_Device_Library/Core/Src/usbd_ctlreq.c ****       break;
 460:Middlewares/ST/STM32_USB_Device_Library/Core/Src/usbd_ctlreq.c **** 
 461:Middlewares/ST/STM32_USB_Device_Library/Core/Src/usbd_ctlreq.c ****     default:
 462:Middlewares/ST/STM32_USB_Device_Library/Core/Src/usbd_ctlreq.c **** #if (USBD_SUPPORT_USER_STRING == 1U)
 463:Middlewares/ST/STM32_USB_Device_Library/Core/Src/usbd_ctlreq.c ****       pbuf = pdev->pClass->GetUsrStrDescriptor(pdev, (req->wValue) , &len);
 464:Middlewares/ST/STM32_USB_Device_Library/Core/Src/usbd_ctlreq.c ****       break;
 465:Middlewares/ST/STM32_USB_Device_Library/Core/Src/usbd_ctlreq.c **** #else
 466:Middlewares/ST/STM32_USB_Device_Library/Core/Src/usbd_ctlreq.c ****        USBD_CtlError(pdev , req);
 467:Middlewares/ST/STM32_USB_Device_Library/Core/Src/usbd_ctlreq.c ****       return;
 468:Middlewares/ST/STM32_USB_Device_Library/Core/Src/usbd_ctlreq.c **** #endif
 469:Middlewares/ST/STM32_USB_Device_Library/Core/Src/usbd_ctlreq.c ****     }
 470:Middlewares/ST/STM32_USB_Device_Library/Core/Src/usbd_ctlreq.c ****     break;
 471:Middlewares/ST/STM32_USB_Device_Library/Core/Src/usbd_ctlreq.c ****   case USB_DESC_TYPE_DEVICE_QUALIFIER:
 472:Middlewares/ST/STM32_USB_Device_Library/Core/Src/usbd_ctlreq.c **** 
 473:Middlewares/ST/STM32_USB_Device_Library/Core/Src/usbd_ctlreq.c ****     if(pdev->dev_speed == USBD_SPEED_HIGH)
 474:Middlewares/ST/STM32_USB_Device_Library/Core/Src/usbd_ctlreq.c ****     {
 475:Middlewares/ST/STM32_USB_Device_Library/Core/Src/usbd_ctlreq.c ****       pbuf = (uint8_t *)pdev->pClass->GetDeviceQualifierDescriptor(&len);
 476:Middlewares/ST/STM32_USB_Device_Library/Core/Src/usbd_ctlreq.c ****       break;
 477:Middlewares/ST/STM32_USB_Device_Library/Core/Src/usbd_ctlreq.c ****     }
 478:Middlewares/ST/STM32_USB_Device_Library/Core/Src/usbd_ctlreq.c ****     else
 479:Middlewares/ST/STM32_USB_Device_Library/Core/Src/usbd_ctlreq.c ****     {
 480:Middlewares/ST/STM32_USB_Device_Library/Core/Src/usbd_ctlreq.c ****       USBD_CtlError(pdev , req);
 481:Middlewares/ST/STM32_USB_Device_Library/Core/Src/usbd_ctlreq.c ****       return;
 482:Middlewares/ST/STM32_USB_Device_Library/Core/Src/usbd_ctlreq.c ****     }
 483:Middlewares/ST/STM32_USB_Device_Library/Core/Src/usbd_ctlreq.c **** 
 484:Middlewares/ST/STM32_USB_Device_Library/Core/Src/usbd_ctlreq.c ****   case USB_DESC_TYPE_OTHER_SPEED_CONFIGURATION:
 485:Middlewares/ST/STM32_USB_Device_Library/Core/Src/usbd_ctlreq.c ****     if(pdev->dev_speed == USBD_SPEED_HIGH  )
 486:Middlewares/ST/STM32_USB_Device_Library/Core/Src/usbd_ctlreq.c ****     {
ARM GAS  /var/folders/jr/lt9tb7vj2871x9rxdxc0hz4h0000gn/T//ccaStH1G.s 			page 10


 487:Middlewares/ST/STM32_USB_Device_Library/Core/Src/usbd_ctlreq.c ****       pbuf   = (uint8_t *)pdev->pClass->GetOtherSpeedConfigDescriptor(&len);
 488:Middlewares/ST/STM32_USB_Device_Library/Core/Src/usbd_ctlreq.c ****       pbuf[1] = USB_DESC_TYPE_OTHER_SPEED_CONFIGURATION;
 489:Middlewares/ST/STM32_USB_Device_Library/Core/Src/usbd_ctlreq.c ****       break;
 490:Middlewares/ST/STM32_USB_Device_Library/Core/Src/usbd_ctlreq.c ****     }
 491:Middlewares/ST/STM32_USB_Device_Library/Core/Src/usbd_ctlreq.c ****     else
 492:Middlewares/ST/STM32_USB_Device_Library/Core/Src/usbd_ctlreq.c ****     {
 493:Middlewares/ST/STM32_USB_Device_Library/Core/Src/usbd_ctlreq.c ****       USBD_CtlError(pdev , req);
 494:Middlewares/ST/STM32_USB_Device_Library/Core/Src/usbd_ctlreq.c ****       return;
 495:Middlewares/ST/STM32_USB_Device_Library/Core/Src/usbd_ctlreq.c ****     }
 496:Middlewares/ST/STM32_USB_Device_Library/Core/Src/usbd_ctlreq.c **** 
 497:Middlewares/ST/STM32_USB_Device_Library/Core/Src/usbd_ctlreq.c ****   default:
 498:Middlewares/ST/STM32_USB_Device_Library/Core/Src/usbd_ctlreq.c ****      USBD_CtlError(pdev , req);
 499:Middlewares/ST/STM32_USB_Device_Library/Core/Src/usbd_ctlreq.c ****     return;
 500:Middlewares/ST/STM32_USB_Device_Library/Core/Src/usbd_ctlreq.c ****   }
 501:Middlewares/ST/STM32_USB_Device_Library/Core/Src/usbd_ctlreq.c **** 
 502:Middlewares/ST/STM32_USB_Device_Library/Core/Src/usbd_ctlreq.c ****   if((len != 0U) && (req->wLength != 0U))
 503:Middlewares/ST/STM32_USB_Device_Library/Core/Src/usbd_ctlreq.c ****   {
 504:Middlewares/ST/STM32_USB_Device_Library/Core/Src/usbd_ctlreq.c **** 
 505:Middlewares/ST/STM32_USB_Device_Library/Core/Src/usbd_ctlreq.c ****     len = MIN(len, req->wLength);
 506:Middlewares/ST/STM32_USB_Device_Library/Core/Src/usbd_ctlreq.c **** 
 507:Middlewares/ST/STM32_USB_Device_Library/Core/Src/usbd_ctlreq.c ****     USBD_CtlSendData (pdev, pbuf, len);
 508:Middlewares/ST/STM32_USB_Device_Library/Core/Src/usbd_ctlreq.c ****   }
 509:Middlewares/ST/STM32_USB_Device_Library/Core/Src/usbd_ctlreq.c **** 
 510:Middlewares/ST/STM32_USB_Device_Library/Core/Src/usbd_ctlreq.c ****   if(req->wLength == 0U)
 511:Middlewares/ST/STM32_USB_Device_Library/Core/Src/usbd_ctlreq.c ****   {
 512:Middlewares/ST/STM32_USB_Device_Library/Core/Src/usbd_ctlreq.c ****    USBD_CtlSendStatus(pdev);
 513:Middlewares/ST/STM32_USB_Device_Library/Core/Src/usbd_ctlreq.c ****   }
 514:Middlewares/ST/STM32_USB_Device_Library/Core/Src/usbd_ctlreq.c **** }
 515:Middlewares/ST/STM32_USB_Device_Library/Core/Src/usbd_ctlreq.c **** 
 516:Middlewares/ST/STM32_USB_Device_Library/Core/Src/usbd_ctlreq.c **** /**
 517:Middlewares/ST/STM32_USB_Device_Library/Core/Src/usbd_ctlreq.c **** * @brief  USBD_SetAddress
 518:Middlewares/ST/STM32_USB_Device_Library/Core/Src/usbd_ctlreq.c **** *         Set device address
 519:Middlewares/ST/STM32_USB_Device_Library/Core/Src/usbd_ctlreq.c **** * @param  pdev: device instance
 520:Middlewares/ST/STM32_USB_Device_Library/Core/Src/usbd_ctlreq.c **** * @param  req: usb request
 521:Middlewares/ST/STM32_USB_Device_Library/Core/Src/usbd_ctlreq.c **** * @retval status
 522:Middlewares/ST/STM32_USB_Device_Library/Core/Src/usbd_ctlreq.c **** */
 523:Middlewares/ST/STM32_USB_Device_Library/Core/Src/usbd_ctlreq.c **** static void USBD_SetAddress(USBD_HandleTypeDef *pdev ,
 524:Middlewares/ST/STM32_USB_Device_Library/Core/Src/usbd_ctlreq.c ****                             USBD_SetupReqTypedef *req)
 525:Middlewares/ST/STM32_USB_Device_Library/Core/Src/usbd_ctlreq.c **** {
 526:Middlewares/ST/STM32_USB_Device_Library/Core/Src/usbd_ctlreq.c ****   uint8_t  dev_addr;
 527:Middlewares/ST/STM32_USB_Device_Library/Core/Src/usbd_ctlreq.c **** 
 528:Middlewares/ST/STM32_USB_Device_Library/Core/Src/usbd_ctlreq.c ****   if ((req->wIndex == 0U) && (req->wLength == 0U) && (req->wValue < 128U))
 529:Middlewares/ST/STM32_USB_Device_Library/Core/Src/usbd_ctlreq.c ****   {
 530:Middlewares/ST/STM32_USB_Device_Library/Core/Src/usbd_ctlreq.c ****     dev_addr = (uint8_t)(req->wValue) & 0x7FU;
 531:Middlewares/ST/STM32_USB_Device_Library/Core/Src/usbd_ctlreq.c **** 
 532:Middlewares/ST/STM32_USB_Device_Library/Core/Src/usbd_ctlreq.c ****     if (pdev->dev_state == USBD_STATE_CONFIGURED)
 533:Middlewares/ST/STM32_USB_Device_Library/Core/Src/usbd_ctlreq.c ****     {
 534:Middlewares/ST/STM32_USB_Device_Library/Core/Src/usbd_ctlreq.c ****       USBD_CtlError(pdev , req);
 535:Middlewares/ST/STM32_USB_Device_Library/Core/Src/usbd_ctlreq.c ****     }
 536:Middlewares/ST/STM32_USB_Device_Library/Core/Src/usbd_ctlreq.c ****     else
 537:Middlewares/ST/STM32_USB_Device_Library/Core/Src/usbd_ctlreq.c ****     {
 538:Middlewares/ST/STM32_USB_Device_Library/Core/Src/usbd_ctlreq.c ****       pdev->dev_address = dev_addr;
 539:Middlewares/ST/STM32_USB_Device_Library/Core/Src/usbd_ctlreq.c ****       USBD_LL_SetUSBAddress(pdev, dev_addr);
 540:Middlewares/ST/STM32_USB_Device_Library/Core/Src/usbd_ctlreq.c ****       USBD_CtlSendStatus(pdev);
 541:Middlewares/ST/STM32_USB_Device_Library/Core/Src/usbd_ctlreq.c **** 
 542:Middlewares/ST/STM32_USB_Device_Library/Core/Src/usbd_ctlreq.c ****       if (dev_addr != 0U)
 543:Middlewares/ST/STM32_USB_Device_Library/Core/Src/usbd_ctlreq.c ****       {
ARM GAS  /var/folders/jr/lt9tb7vj2871x9rxdxc0hz4h0000gn/T//ccaStH1G.s 			page 11


 544:Middlewares/ST/STM32_USB_Device_Library/Core/Src/usbd_ctlreq.c ****         pdev->dev_state = USBD_STATE_ADDRESSED;
 545:Middlewares/ST/STM32_USB_Device_Library/Core/Src/usbd_ctlreq.c ****       }
 546:Middlewares/ST/STM32_USB_Device_Library/Core/Src/usbd_ctlreq.c ****       else
 547:Middlewares/ST/STM32_USB_Device_Library/Core/Src/usbd_ctlreq.c ****       {
 548:Middlewares/ST/STM32_USB_Device_Library/Core/Src/usbd_ctlreq.c ****         pdev->dev_state = USBD_STATE_DEFAULT;
 549:Middlewares/ST/STM32_USB_Device_Library/Core/Src/usbd_ctlreq.c ****       }
 550:Middlewares/ST/STM32_USB_Device_Library/Core/Src/usbd_ctlreq.c ****     }
 551:Middlewares/ST/STM32_USB_Device_Library/Core/Src/usbd_ctlreq.c ****   }
 552:Middlewares/ST/STM32_USB_Device_Library/Core/Src/usbd_ctlreq.c ****   else
 553:Middlewares/ST/STM32_USB_Device_Library/Core/Src/usbd_ctlreq.c ****   {
 554:Middlewares/ST/STM32_USB_Device_Library/Core/Src/usbd_ctlreq.c ****     USBD_CtlError(pdev, req);
 555:Middlewares/ST/STM32_USB_Device_Library/Core/Src/usbd_ctlreq.c ****   }
 556:Middlewares/ST/STM32_USB_Device_Library/Core/Src/usbd_ctlreq.c **** }
 557:Middlewares/ST/STM32_USB_Device_Library/Core/Src/usbd_ctlreq.c **** 
 558:Middlewares/ST/STM32_USB_Device_Library/Core/Src/usbd_ctlreq.c **** /**
 559:Middlewares/ST/STM32_USB_Device_Library/Core/Src/usbd_ctlreq.c **** * @brief  USBD_SetConfig
 560:Middlewares/ST/STM32_USB_Device_Library/Core/Src/usbd_ctlreq.c **** *         Handle Set device configuration request
 561:Middlewares/ST/STM32_USB_Device_Library/Core/Src/usbd_ctlreq.c **** * @param  pdev: device instance
 562:Middlewares/ST/STM32_USB_Device_Library/Core/Src/usbd_ctlreq.c **** * @param  req: usb request
 563:Middlewares/ST/STM32_USB_Device_Library/Core/Src/usbd_ctlreq.c **** * @retval status
 564:Middlewares/ST/STM32_USB_Device_Library/Core/Src/usbd_ctlreq.c **** */
 565:Middlewares/ST/STM32_USB_Device_Library/Core/Src/usbd_ctlreq.c **** static void USBD_SetConfig(USBD_HandleTypeDef *pdev, USBD_SetupReqTypedef *req)
 566:Middlewares/ST/STM32_USB_Device_Library/Core/Src/usbd_ctlreq.c **** {
 567:Middlewares/ST/STM32_USB_Device_Library/Core/Src/usbd_ctlreq.c ****   static uint8_t cfgidx;
 568:Middlewares/ST/STM32_USB_Device_Library/Core/Src/usbd_ctlreq.c **** 
 569:Middlewares/ST/STM32_USB_Device_Library/Core/Src/usbd_ctlreq.c ****   cfgidx = (uint8_t)(req->wValue);
 570:Middlewares/ST/STM32_USB_Device_Library/Core/Src/usbd_ctlreq.c **** 
 571:Middlewares/ST/STM32_USB_Device_Library/Core/Src/usbd_ctlreq.c ****   if (cfgidx > USBD_MAX_NUM_CONFIGURATION)
 572:Middlewares/ST/STM32_USB_Device_Library/Core/Src/usbd_ctlreq.c ****   {
 573:Middlewares/ST/STM32_USB_Device_Library/Core/Src/usbd_ctlreq.c ****     USBD_CtlError(pdev, req);
 574:Middlewares/ST/STM32_USB_Device_Library/Core/Src/usbd_ctlreq.c ****   }
 575:Middlewares/ST/STM32_USB_Device_Library/Core/Src/usbd_ctlreq.c ****   else
 576:Middlewares/ST/STM32_USB_Device_Library/Core/Src/usbd_ctlreq.c ****   {
 577:Middlewares/ST/STM32_USB_Device_Library/Core/Src/usbd_ctlreq.c ****     switch (pdev->dev_state)
 578:Middlewares/ST/STM32_USB_Device_Library/Core/Src/usbd_ctlreq.c ****     {
 579:Middlewares/ST/STM32_USB_Device_Library/Core/Src/usbd_ctlreq.c ****     case USBD_STATE_ADDRESSED:
 580:Middlewares/ST/STM32_USB_Device_Library/Core/Src/usbd_ctlreq.c ****       if (cfgidx)
 581:Middlewares/ST/STM32_USB_Device_Library/Core/Src/usbd_ctlreq.c ****       {
 582:Middlewares/ST/STM32_USB_Device_Library/Core/Src/usbd_ctlreq.c ****         pdev->dev_config = cfgidx;
 583:Middlewares/ST/STM32_USB_Device_Library/Core/Src/usbd_ctlreq.c ****         pdev->dev_state = USBD_STATE_CONFIGURED;
 584:Middlewares/ST/STM32_USB_Device_Library/Core/Src/usbd_ctlreq.c ****         if(USBD_SetClassConfig(pdev, cfgidx) == USBD_FAIL)
 585:Middlewares/ST/STM32_USB_Device_Library/Core/Src/usbd_ctlreq.c ****         {
 586:Middlewares/ST/STM32_USB_Device_Library/Core/Src/usbd_ctlreq.c ****           USBD_CtlError(pdev, req);
 587:Middlewares/ST/STM32_USB_Device_Library/Core/Src/usbd_ctlreq.c ****           return;
 588:Middlewares/ST/STM32_USB_Device_Library/Core/Src/usbd_ctlreq.c ****         }
 589:Middlewares/ST/STM32_USB_Device_Library/Core/Src/usbd_ctlreq.c ****         USBD_CtlSendStatus(pdev);
 590:Middlewares/ST/STM32_USB_Device_Library/Core/Src/usbd_ctlreq.c ****       }
 591:Middlewares/ST/STM32_USB_Device_Library/Core/Src/usbd_ctlreq.c ****       else
 592:Middlewares/ST/STM32_USB_Device_Library/Core/Src/usbd_ctlreq.c ****       {
 593:Middlewares/ST/STM32_USB_Device_Library/Core/Src/usbd_ctlreq.c ****         USBD_CtlSendStatus(pdev);
 594:Middlewares/ST/STM32_USB_Device_Library/Core/Src/usbd_ctlreq.c ****       }
 595:Middlewares/ST/STM32_USB_Device_Library/Core/Src/usbd_ctlreq.c ****       break;
 596:Middlewares/ST/STM32_USB_Device_Library/Core/Src/usbd_ctlreq.c **** 
 597:Middlewares/ST/STM32_USB_Device_Library/Core/Src/usbd_ctlreq.c ****     case USBD_STATE_CONFIGURED:
 598:Middlewares/ST/STM32_USB_Device_Library/Core/Src/usbd_ctlreq.c ****       if (cfgidx == 0U)
 599:Middlewares/ST/STM32_USB_Device_Library/Core/Src/usbd_ctlreq.c ****       {
 600:Middlewares/ST/STM32_USB_Device_Library/Core/Src/usbd_ctlreq.c ****         pdev->dev_state = USBD_STATE_ADDRESSED;
ARM GAS  /var/folders/jr/lt9tb7vj2871x9rxdxc0hz4h0000gn/T//ccaStH1G.s 			page 12


 601:Middlewares/ST/STM32_USB_Device_Library/Core/Src/usbd_ctlreq.c ****         pdev->dev_config = cfgidx;
 602:Middlewares/ST/STM32_USB_Device_Library/Core/Src/usbd_ctlreq.c ****         USBD_ClrClassConfig(pdev, cfgidx);
 603:Middlewares/ST/STM32_USB_Device_Library/Core/Src/usbd_ctlreq.c ****         USBD_CtlSendStatus(pdev);
 604:Middlewares/ST/STM32_USB_Device_Library/Core/Src/usbd_ctlreq.c ****       }
 605:Middlewares/ST/STM32_USB_Device_Library/Core/Src/usbd_ctlreq.c ****       else if (cfgidx != pdev->dev_config)
 606:Middlewares/ST/STM32_USB_Device_Library/Core/Src/usbd_ctlreq.c ****       {
 607:Middlewares/ST/STM32_USB_Device_Library/Core/Src/usbd_ctlreq.c ****         /* Clear old configuration */
 608:Middlewares/ST/STM32_USB_Device_Library/Core/Src/usbd_ctlreq.c ****         USBD_ClrClassConfig(pdev, (uint8_t)pdev->dev_config);
 609:Middlewares/ST/STM32_USB_Device_Library/Core/Src/usbd_ctlreq.c **** 
 610:Middlewares/ST/STM32_USB_Device_Library/Core/Src/usbd_ctlreq.c ****         /* set new configuration */
 611:Middlewares/ST/STM32_USB_Device_Library/Core/Src/usbd_ctlreq.c ****         pdev->dev_config = cfgidx;
 612:Middlewares/ST/STM32_USB_Device_Library/Core/Src/usbd_ctlreq.c ****         if(USBD_SetClassConfig(pdev, cfgidx) == USBD_FAIL)
 613:Middlewares/ST/STM32_USB_Device_Library/Core/Src/usbd_ctlreq.c ****         {
 614:Middlewares/ST/STM32_USB_Device_Library/Core/Src/usbd_ctlreq.c ****           USBD_CtlError(pdev, req);
 615:Middlewares/ST/STM32_USB_Device_Library/Core/Src/usbd_ctlreq.c ****           return;
 616:Middlewares/ST/STM32_USB_Device_Library/Core/Src/usbd_ctlreq.c ****         }
 617:Middlewares/ST/STM32_USB_Device_Library/Core/Src/usbd_ctlreq.c ****         USBD_CtlSendStatus(pdev);
 618:Middlewares/ST/STM32_USB_Device_Library/Core/Src/usbd_ctlreq.c ****       }
 619:Middlewares/ST/STM32_USB_Device_Library/Core/Src/usbd_ctlreq.c ****       else
 620:Middlewares/ST/STM32_USB_Device_Library/Core/Src/usbd_ctlreq.c ****       {
 621:Middlewares/ST/STM32_USB_Device_Library/Core/Src/usbd_ctlreq.c ****         USBD_CtlSendStatus(pdev);
 622:Middlewares/ST/STM32_USB_Device_Library/Core/Src/usbd_ctlreq.c ****       }
 623:Middlewares/ST/STM32_USB_Device_Library/Core/Src/usbd_ctlreq.c ****       break;
 624:Middlewares/ST/STM32_USB_Device_Library/Core/Src/usbd_ctlreq.c **** 
 625:Middlewares/ST/STM32_USB_Device_Library/Core/Src/usbd_ctlreq.c ****     default:
 626:Middlewares/ST/STM32_USB_Device_Library/Core/Src/usbd_ctlreq.c ****       USBD_CtlError(pdev, req);
 627:Middlewares/ST/STM32_USB_Device_Library/Core/Src/usbd_ctlreq.c ****       USBD_ClrClassConfig(pdev, cfgidx);
 628:Middlewares/ST/STM32_USB_Device_Library/Core/Src/usbd_ctlreq.c ****       break;
 629:Middlewares/ST/STM32_USB_Device_Library/Core/Src/usbd_ctlreq.c ****     }
 630:Middlewares/ST/STM32_USB_Device_Library/Core/Src/usbd_ctlreq.c ****   }
 631:Middlewares/ST/STM32_USB_Device_Library/Core/Src/usbd_ctlreq.c **** }
 632:Middlewares/ST/STM32_USB_Device_Library/Core/Src/usbd_ctlreq.c **** 
 633:Middlewares/ST/STM32_USB_Device_Library/Core/Src/usbd_ctlreq.c **** /**
 634:Middlewares/ST/STM32_USB_Device_Library/Core/Src/usbd_ctlreq.c **** * @brief  USBD_GetConfig
 635:Middlewares/ST/STM32_USB_Device_Library/Core/Src/usbd_ctlreq.c **** *         Handle Get device configuration request
 636:Middlewares/ST/STM32_USB_Device_Library/Core/Src/usbd_ctlreq.c **** * @param  pdev: device instance
 637:Middlewares/ST/STM32_USB_Device_Library/Core/Src/usbd_ctlreq.c **** * @param  req: usb request
 638:Middlewares/ST/STM32_USB_Device_Library/Core/Src/usbd_ctlreq.c **** * @retval status
 639:Middlewares/ST/STM32_USB_Device_Library/Core/Src/usbd_ctlreq.c **** */
 640:Middlewares/ST/STM32_USB_Device_Library/Core/Src/usbd_ctlreq.c **** static void USBD_GetConfig(USBD_HandleTypeDef *pdev, USBD_SetupReqTypedef *req)
 641:Middlewares/ST/STM32_USB_Device_Library/Core/Src/usbd_ctlreq.c **** {
 642:Middlewares/ST/STM32_USB_Device_Library/Core/Src/usbd_ctlreq.c ****   if (req->wLength != 1U)
 643:Middlewares/ST/STM32_USB_Device_Library/Core/Src/usbd_ctlreq.c ****   {
 644:Middlewares/ST/STM32_USB_Device_Library/Core/Src/usbd_ctlreq.c ****     USBD_CtlError(pdev , req);
 645:Middlewares/ST/STM32_USB_Device_Library/Core/Src/usbd_ctlreq.c ****   }
 646:Middlewares/ST/STM32_USB_Device_Library/Core/Src/usbd_ctlreq.c ****   else
 647:Middlewares/ST/STM32_USB_Device_Library/Core/Src/usbd_ctlreq.c ****   {
 648:Middlewares/ST/STM32_USB_Device_Library/Core/Src/usbd_ctlreq.c ****     switch (pdev->dev_state)
 649:Middlewares/ST/STM32_USB_Device_Library/Core/Src/usbd_ctlreq.c ****     {
 650:Middlewares/ST/STM32_USB_Device_Library/Core/Src/usbd_ctlreq.c ****     case USBD_STATE_DEFAULT:
 651:Middlewares/ST/STM32_USB_Device_Library/Core/Src/usbd_ctlreq.c ****     case USBD_STATE_ADDRESSED:
 652:Middlewares/ST/STM32_USB_Device_Library/Core/Src/usbd_ctlreq.c ****       pdev->dev_default_config = 0U;
 653:Middlewares/ST/STM32_USB_Device_Library/Core/Src/usbd_ctlreq.c ****       USBD_CtlSendData (pdev, (uint8_t *)(void *)&pdev->dev_default_config, 1U);
 654:Middlewares/ST/STM32_USB_Device_Library/Core/Src/usbd_ctlreq.c ****       break;
 655:Middlewares/ST/STM32_USB_Device_Library/Core/Src/usbd_ctlreq.c **** 
 656:Middlewares/ST/STM32_USB_Device_Library/Core/Src/usbd_ctlreq.c ****     case USBD_STATE_CONFIGURED:
 657:Middlewares/ST/STM32_USB_Device_Library/Core/Src/usbd_ctlreq.c ****       USBD_CtlSendData (pdev, (uint8_t *)(void *)&pdev->dev_config, 1U);
ARM GAS  /var/folders/jr/lt9tb7vj2871x9rxdxc0hz4h0000gn/T//ccaStH1G.s 			page 13


 658:Middlewares/ST/STM32_USB_Device_Library/Core/Src/usbd_ctlreq.c ****       break;
 659:Middlewares/ST/STM32_USB_Device_Library/Core/Src/usbd_ctlreq.c **** 
 660:Middlewares/ST/STM32_USB_Device_Library/Core/Src/usbd_ctlreq.c ****     default:
 661:Middlewares/ST/STM32_USB_Device_Library/Core/Src/usbd_ctlreq.c ****       USBD_CtlError(pdev , req);
 662:Middlewares/ST/STM32_USB_Device_Library/Core/Src/usbd_ctlreq.c ****       break;
 663:Middlewares/ST/STM32_USB_Device_Library/Core/Src/usbd_ctlreq.c ****     }
 664:Middlewares/ST/STM32_USB_Device_Library/Core/Src/usbd_ctlreq.c ****   }
 665:Middlewares/ST/STM32_USB_Device_Library/Core/Src/usbd_ctlreq.c **** }
 666:Middlewares/ST/STM32_USB_Device_Library/Core/Src/usbd_ctlreq.c **** 
 667:Middlewares/ST/STM32_USB_Device_Library/Core/Src/usbd_ctlreq.c **** /**
 668:Middlewares/ST/STM32_USB_Device_Library/Core/Src/usbd_ctlreq.c **** * @brief  USBD_GetStatus
 669:Middlewares/ST/STM32_USB_Device_Library/Core/Src/usbd_ctlreq.c **** *         Handle Get Status request
 670:Middlewares/ST/STM32_USB_Device_Library/Core/Src/usbd_ctlreq.c **** * @param  pdev: device instance
 671:Middlewares/ST/STM32_USB_Device_Library/Core/Src/usbd_ctlreq.c **** * @param  req: usb request
 672:Middlewares/ST/STM32_USB_Device_Library/Core/Src/usbd_ctlreq.c **** * @retval status
 673:Middlewares/ST/STM32_USB_Device_Library/Core/Src/usbd_ctlreq.c **** */
 674:Middlewares/ST/STM32_USB_Device_Library/Core/Src/usbd_ctlreq.c **** static void USBD_GetStatus(USBD_HandleTypeDef *pdev, USBD_SetupReqTypedef *req)
 675:Middlewares/ST/STM32_USB_Device_Library/Core/Src/usbd_ctlreq.c **** {
 676:Middlewares/ST/STM32_USB_Device_Library/Core/Src/usbd_ctlreq.c ****   switch (pdev->dev_state)
 677:Middlewares/ST/STM32_USB_Device_Library/Core/Src/usbd_ctlreq.c ****   {
 678:Middlewares/ST/STM32_USB_Device_Library/Core/Src/usbd_ctlreq.c ****   case USBD_STATE_DEFAULT:
 679:Middlewares/ST/STM32_USB_Device_Library/Core/Src/usbd_ctlreq.c ****   case USBD_STATE_ADDRESSED:
 680:Middlewares/ST/STM32_USB_Device_Library/Core/Src/usbd_ctlreq.c ****   case USBD_STATE_CONFIGURED:
 681:Middlewares/ST/STM32_USB_Device_Library/Core/Src/usbd_ctlreq.c ****     if(req->wLength != 0x2U)
 682:Middlewares/ST/STM32_USB_Device_Library/Core/Src/usbd_ctlreq.c ****     {
 683:Middlewares/ST/STM32_USB_Device_Library/Core/Src/usbd_ctlreq.c ****       USBD_CtlError(pdev, req);
 684:Middlewares/ST/STM32_USB_Device_Library/Core/Src/usbd_ctlreq.c ****       break;
 685:Middlewares/ST/STM32_USB_Device_Library/Core/Src/usbd_ctlreq.c ****     }
 686:Middlewares/ST/STM32_USB_Device_Library/Core/Src/usbd_ctlreq.c **** 
 687:Middlewares/ST/STM32_USB_Device_Library/Core/Src/usbd_ctlreq.c **** #if ( USBD_SELF_POWERED == 1U)
 688:Middlewares/ST/STM32_USB_Device_Library/Core/Src/usbd_ctlreq.c ****     pdev->dev_config_status = USB_CONFIG_SELF_POWERED;
 689:Middlewares/ST/STM32_USB_Device_Library/Core/Src/usbd_ctlreq.c **** #else
 690:Middlewares/ST/STM32_USB_Device_Library/Core/Src/usbd_ctlreq.c ****     pdev->dev_config_status = 0U;
 691:Middlewares/ST/STM32_USB_Device_Library/Core/Src/usbd_ctlreq.c **** #endif
 692:Middlewares/ST/STM32_USB_Device_Library/Core/Src/usbd_ctlreq.c **** 
 693:Middlewares/ST/STM32_USB_Device_Library/Core/Src/usbd_ctlreq.c ****     if (pdev->dev_remote_wakeup)
 694:Middlewares/ST/STM32_USB_Device_Library/Core/Src/usbd_ctlreq.c ****     {
 695:Middlewares/ST/STM32_USB_Device_Library/Core/Src/usbd_ctlreq.c ****       pdev->dev_config_status |= USB_CONFIG_REMOTE_WAKEUP;
 696:Middlewares/ST/STM32_USB_Device_Library/Core/Src/usbd_ctlreq.c ****     }
 697:Middlewares/ST/STM32_USB_Device_Library/Core/Src/usbd_ctlreq.c **** 
 698:Middlewares/ST/STM32_USB_Device_Library/Core/Src/usbd_ctlreq.c ****     USBD_CtlSendData (pdev, (uint8_t *)(void *)&pdev->dev_config_status, 2U);
 699:Middlewares/ST/STM32_USB_Device_Library/Core/Src/usbd_ctlreq.c ****     break;
 700:Middlewares/ST/STM32_USB_Device_Library/Core/Src/usbd_ctlreq.c **** 
 701:Middlewares/ST/STM32_USB_Device_Library/Core/Src/usbd_ctlreq.c ****   default :
 702:Middlewares/ST/STM32_USB_Device_Library/Core/Src/usbd_ctlreq.c ****     USBD_CtlError(pdev , req);
 703:Middlewares/ST/STM32_USB_Device_Library/Core/Src/usbd_ctlreq.c ****     break;
 704:Middlewares/ST/STM32_USB_Device_Library/Core/Src/usbd_ctlreq.c ****   }
 705:Middlewares/ST/STM32_USB_Device_Library/Core/Src/usbd_ctlreq.c **** }
 706:Middlewares/ST/STM32_USB_Device_Library/Core/Src/usbd_ctlreq.c **** 
 707:Middlewares/ST/STM32_USB_Device_Library/Core/Src/usbd_ctlreq.c **** 
 708:Middlewares/ST/STM32_USB_Device_Library/Core/Src/usbd_ctlreq.c **** /**
 709:Middlewares/ST/STM32_USB_Device_Library/Core/Src/usbd_ctlreq.c **** * @brief  USBD_SetFeature
 710:Middlewares/ST/STM32_USB_Device_Library/Core/Src/usbd_ctlreq.c **** *         Handle Set device feature request
 711:Middlewares/ST/STM32_USB_Device_Library/Core/Src/usbd_ctlreq.c **** * @param  pdev: device instance
 712:Middlewares/ST/STM32_USB_Device_Library/Core/Src/usbd_ctlreq.c **** * @param  req: usb request
 713:Middlewares/ST/STM32_USB_Device_Library/Core/Src/usbd_ctlreq.c **** * @retval status
 714:Middlewares/ST/STM32_USB_Device_Library/Core/Src/usbd_ctlreq.c **** */
ARM GAS  /var/folders/jr/lt9tb7vj2871x9rxdxc0hz4h0000gn/T//ccaStH1G.s 			page 14


 715:Middlewares/ST/STM32_USB_Device_Library/Core/Src/usbd_ctlreq.c **** static void USBD_SetFeature(USBD_HandleTypeDef *pdev ,
 716:Middlewares/ST/STM32_USB_Device_Library/Core/Src/usbd_ctlreq.c ****                             USBD_SetupReqTypedef *req)
 717:Middlewares/ST/STM32_USB_Device_Library/Core/Src/usbd_ctlreq.c **** {
 718:Middlewares/ST/STM32_USB_Device_Library/Core/Src/usbd_ctlreq.c **** 
 719:Middlewares/ST/STM32_USB_Device_Library/Core/Src/usbd_ctlreq.c ****   if (req->wValue == USB_FEATURE_REMOTE_WAKEUP)
 720:Middlewares/ST/STM32_USB_Device_Library/Core/Src/usbd_ctlreq.c ****   {
 721:Middlewares/ST/STM32_USB_Device_Library/Core/Src/usbd_ctlreq.c ****     pdev->dev_remote_wakeup = 1U;
 722:Middlewares/ST/STM32_USB_Device_Library/Core/Src/usbd_ctlreq.c ****     USBD_CtlSendStatus(pdev);
 723:Middlewares/ST/STM32_USB_Device_Library/Core/Src/usbd_ctlreq.c ****   }
 724:Middlewares/ST/STM32_USB_Device_Library/Core/Src/usbd_ctlreq.c **** 
 725:Middlewares/ST/STM32_USB_Device_Library/Core/Src/usbd_ctlreq.c **** }
 726:Middlewares/ST/STM32_USB_Device_Library/Core/Src/usbd_ctlreq.c **** 
 727:Middlewares/ST/STM32_USB_Device_Library/Core/Src/usbd_ctlreq.c **** 
 728:Middlewares/ST/STM32_USB_Device_Library/Core/Src/usbd_ctlreq.c **** /**
 729:Middlewares/ST/STM32_USB_Device_Library/Core/Src/usbd_ctlreq.c **** * @brief  USBD_ClrFeature
 730:Middlewares/ST/STM32_USB_Device_Library/Core/Src/usbd_ctlreq.c **** *         Handle clear device feature request
 731:Middlewares/ST/STM32_USB_Device_Library/Core/Src/usbd_ctlreq.c **** * @param  pdev: device instance
 732:Middlewares/ST/STM32_USB_Device_Library/Core/Src/usbd_ctlreq.c **** * @param  req: usb request
 733:Middlewares/ST/STM32_USB_Device_Library/Core/Src/usbd_ctlreq.c **** * @retval status
 734:Middlewares/ST/STM32_USB_Device_Library/Core/Src/usbd_ctlreq.c **** */
 735:Middlewares/ST/STM32_USB_Device_Library/Core/Src/usbd_ctlreq.c **** static void USBD_ClrFeature(USBD_HandleTypeDef *pdev ,
 736:Middlewares/ST/STM32_USB_Device_Library/Core/Src/usbd_ctlreq.c ****                             USBD_SetupReqTypedef *req)
 737:Middlewares/ST/STM32_USB_Device_Library/Core/Src/usbd_ctlreq.c **** {
 738:Middlewares/ST/STM32_USB_Device_Library/Core/Src/usbd_ctlreq.c ****   switch (pdev->dev_state)
 739:Middlewares/ST/STM32_USB_Device_Library/Core/Src/usbd_ctlreq.c ****   {
 740:Middlewares/ST/STM32_USB_Device_Library/Core/Src/usbd_ctlreq.c ****   case USBD_STATE_DEFAULT:
 741:Middlewares/ST/STM32_USB_Device_Library/Core/Src/usbd_ctlreq.c ****   case USBD_STATE_ADDRESSED:
 742:Middlewares/ST/STM32_USB_Device_Library/Core/Src/usbd_ctlreq.c ****   case USBD_STATE_CONFIGURED:
 743:Middlewares/ST/STM32_USB_Device_Library/Core/Src/usbd_ctlreq.c ****     if (req->wValue == USB_FEATURE_REMOTE_WAKEUP)
 744:Middlewares/ST/STM32_USB_Device_Library/Core/Src/usbd_ctlreq.c ****     {
 745:Middlewares/ST/STM32_USB_Device_Library/Core/Src/usbd_ctlreq.c ****       pdev->dev_remote_wakeup = 0U;
 746:Middlewares/ST/STM32_USB_Device_Library/Core/Src/usbd_ctlreq.c ****       USBD_CtlSendStatus(pdev);
 747:Middlewares/ST/STM32_USB_Device_Library/Core/Src/usbd_ctlreq.c ****     }
 748:Middlewares/ST/STM32_USB_Device_Library/Core/Src/usbd_ctlreq.c ****     break;
 749:Middlewares/ST/STM32_USB_Device_Library/Core/Src/usbd_ctlreq.c **** 
 750:Middlewares/ST/STM32_USB_Device_Library/Core/Src/usbd_ctlreq.c ****   default :
 751:Middlewares/ST/STM32_USB_Device_Library/Core/Src/usbd_ctlreq.c ****      USBD_CtlError(pdev , req);
 752:Middlewares/ST/STM32_USB_Device_Library/Core/Src/usbd_ctlreq.c ****     break;
 753:Middlewares/ST/STM32_USB_Device_Library/Core/Src/usbd_ctlreq.c ****   }
 754:Middlewares/ST/STM32_USB_Device_Library/Core/Src/usbd_ctlreq.c **** }
 755:Middlewares/ST/STM32_USB_Device_Library/Core/Src/usbd_ctlreq.c **** 
 756:Middlewares/ST/STM32_USB_Device_Library/Core/Src/usbd_ctlreq.c **** /**
 757:Middlewares/ST/STM32_USB_Device_Library/Core/Src/usbd_ctlreq.c **** * @brief  USBD_ParseSetupRequest
 758:Middlewares/ST/STM32_USB_Device_Library/Core/Src/usbd_ctlreq.c **** *         Copy buffer into setup structure
 759:Middlewares/ST/STM32_USB_Device_Library/Core/Src/usbd_ctlreq.c **** * @param  pdev: device instance
 760:Middlewares/ST/STM32_USB_Device_Library/Core/Src/usbd_ctlreq.c **** * @param  req: usb request
 761:Middlewares/ST/STM32_USB_Device_Library/Core/Src/usbd_ctlreq.c **** * @retval None
 762:Middlewares/ST/STM32_USB_Device_Library/Core/Src/usbd_ctlreq.c **** */
 763:Middlewares/ST/STM32_USB_Device_Library/Core/Src/usbd_ctlreq.c **** 
 764:Middlewares/ST/STM32_USB_Device_Library/Core/Src/usbd_ctlreq.c **** void USBD_ParseSetupRequest(USBD_SetupReqTypedef *req, uint8_t *pdata)
 765:Middlewares/ST/STM32_USB_Device_Library/Core/Src/usbd_ctlreq.c **** {
 766:Middlewares/ST/STM32_USB_Device_Library/Core/Src/usbd_ctlreq.c ****   req->bmRequest     = *(uint8_t *)  (pdata);
 767:Middlewares/ST/STM32_USB_Device_Library/Core/Src/usbd_ctlreq.c ****   req->bRequest      = *(uint8_t *)  (pdata +  1);
 768:Middlewares/ST/STM32_USB_Device_Library/Core/Src/usbd_ctlreq.c ****   req->wValue        = SWAPBYTE      (pdata +  2);
 769:Middlewares/ST/STM32_USB_Device_Library/Core/Src/usbd_ctlreq.c ****   req->wIndex        = SWAPBYTE      (pdata +  4);
 770:Middlewares/ST/STM32_USB_Device_Library/Core/Src/usbd_ctlreq.c ****   req->wLength       = SWAPBYTE      (pdata +  6);
 771:Middlewares/ST/STM32_USB_Device_Library/Core/Src/usbd_ctlreq.c **** 
ARM GAS  /var/folders/jr/lt9tb7vj2871x9rxdxc0hz4h0000gn/T//ccaStH1G.s 			page 15


 772:Middlewares/ST/STM32_USB_Device_Library/Core/Src/usbd_ctlreq.c **** }
 773:Middlewares/ST/STM32_USB_Device_Library/Core/Src/usbd_ctlreq.c **** 
 774:Middlewares/ST/STM32_USB_Device_Library/Core/Src/usbd_ctlreq.c **** /**
 775:Middlewares/ST/STM32_USB_Device_Library/Core/Src/usbd_ctlreq.c **** * @brief  USBD_CtlError
 776:Middlewares/ST/STM32_USB_Device_Library/Core/Src/usbd_ctlreq.c **** *         Handle USB low level Error
 777:Middlewares/ST/STM32_USB_Device_Library/Core/Src/usbd_ctlreq.c **** * @param  pdev: device instance
 778:Middlewares/ST/STM32_USB_Device_Library/Core/Src/usbd_ctlreq.c **** * @param  req: usb request
 779:Middlewares/ST/STM32_USB_Device_Library/Core/Src/usbd_ctlreq.c **** * @retval None
 780:Middlewares/ST/STM32_USB_Device_Library/Core/Src/usbd_ctlreq.c **** */
 781:Middlewares/ST/STM32_USB_Device_Library/Core/Src/usbd_ctlreq.c **** 
 782:Middlewares/ST/STM32_USB_Device_Library/Core/Src/usbd_ctlreq.c **** void USBD_CtlError( USBD_HandleTypeDef *pdev ,
 783:Middlewares/ST/STM32_USB_Device_Library/Core/Src/usbd_ctlreq.c ****                             USBD_SetupReqTypedef *req)
 784:Middlewares/ST/STM32_USB_Device_Library/Core/Src/usbd_ctlreq.c **** {
 785:Middlewares/ST/STM32_USB_Device_Library/Core/Src/usbd_ctlreq.c ****   USBD_LL_StallEP(pdev , 0x80U);
 786:Middlewares/ST/STM32_USB_Device_Library/Core/Src/usbd_ctlreq.c ****   USBD_LL_StallEP(pdev , 0U);
 787:Middlewares/ST/STM32_USB_Device_Library/Core/Src/usbd_ctlreq.c **** }
 788:Middlewares/ST/STM32_USB_Device_Library/Core/Src/usbd_ctlreq.c **** 
 789:Middlewares/ST/STM32_USB_Device_Library/Core/Src/usbd_ctlreq.c **** 
 790:Middlewares/ST/STM32_USB_Device_Library/Core/Src/usbd_ctlreq.c **** /**
 791:Middlewares/ST/STM32_USB_Device_Library/Core/Src/usbd_ctlreq.c ****   * @brief  USBD_GetString
 792:Middlewares/ST/STM32_USB_Device_Library/Core/Src/usbd_ctlreq.c ****   *         Convert Ascii string into unicode one
 793:Middlewares/ST/STM32_USB_Device_Library/Core/Src/usbd_ctlreq.c ****   * @param  desc : descriptor buffer
 794:Middlewares/ST/STM32_USB_Device_Library/Core/Src/usbd_ctlreq.c ****   * @param  unicode : Formatted string buffer (unicode)
 795:Middlewares/ST/STM32_USB_Device_Library/Core/Src/usbd_ctlreq.c ****   * @param  len : descriptor length
 796:Middlewares/ST/STM32_USB_Device_Library/Core/Src/usbd_ctlreq.c ****   * @retval None
 797:Middlewares/ST/STM32_USB_Device_Library/Core/Src/usbd_ctlreq.c ****   */
 798:Middlewares/ST/STM32_USB_Device_Library/Core/Src/usbd_ctlreq.c **** void USBD_GetString(uint8_t *desc, uint8_t *unicode, uint16_t *len)
 799:Middlewares/ST/STM32_USB_Device_Library/Core/Src/usbd_ctlreq.c **** {
 800:Middlewares/ST/STM32_USB_Device_Library/Core/Src/usbd_ctlreq.c ****   uint8_t idx = 0U;
 801:Middlewares/ST/STM32_USB_Device_Library/Core/Src/usbd_ctlreq.c **** 
 802:Middlewares/ST/STM32_USB_Device_Library/Core/Src/usbd_ctlreq.c ****   if (desc != NULL)
 803:Middlewares/ST/STM32_USB_Device_Library/Core/Src/usbd_ctlreq.c ****   {
 804:Middlewares/ST/STM32_USB_Device_Library/Core/Src/usbd_ctlreq.c ****     *len = (uint16_t)USBD_GetLen(desc) * 2U + 2U;
 805:Middlewares/ST/STM32_USB_Device_Library/Core/Src/usbd_ctlreq.c ****     unicode[idx++] = *(uint8_t *)(void *)len;
 806:Middlewares/ST/STM32_USB_Device_Library/Core/Src/usbd_ctlreq.c ****     unicode[idx++] = USB_DESC_TYPE_STRING;
 807:Middlewares/ST/STM32_USB_Device_Library/Core/Src/usbd_ctlreq.c **** 
 808:Middlewares/ST/STM32_USB_Device_Library/Core/Src/usbd_ctlreq.c ****     while (*desc != '\0')
 809:Middlewares/ST/STM32_USB_Device_Library/Core/Src/usbd_ctlreq.c ****     {
 810:Middlewares/ST/STM32_USB_Device_Library/Core/Src/usbd_ctlreq.c ****       unicode[idx++] = *desc++;
 811:Middlewares/ST/STM32_USB_Device_Library/Core/Src/usbd_ctlreq.c ****       unicode[idx++] =  0U;
 812:Middlewares/ST/STM32_USB_Device_Library/Core/Src/usbd_ctlreq.c ****     }
 813:Middlewares/ST/STM32_USB_Device_Library/Core/Src/usbd_ctlreq.c ****   }
 814:Middlewares/ST/STM32_USB_Device_Library/Core/Src/usbd_ctlreq.c **** }
 815:Middlewares/ST/STM32_USB_Device_Library/Core/Src/usbd_ctlreq.c **** 
 816:Middlewares/ST/STM32_USB_Device_Library/Core/Src/usbd_ctlreq.c **** /**
 817:Middlewares/ST/STM32_USB_Device_Library/Core/Src/usbd_ctlreq.c ****   * @brief  USBD_GetLen
 818:Middlewares/ST/STM32_USB_Device_Library/Core/Src/usbd_ctlreq.c ****   *         return the string length
 819:Middlewares/ST/STM32_USB_Device_Library/Core/Src/usbd_ctlreq.c ****    * @param  buf : pointer to the ascii string buffer
 820:Middlewares/ST/STM32_USB_Device_Library/Core/Src/usbd_ctlreq.c ****   * @retval string length
 821:Middlewares/ST/STM32_USB_Device_Library/Core/Src/usbd_ctlreq.c ****   */
 822:Middlewares/ST/STM32_USB_Device_Library/Core/Src/usbd_ctlreq.c **** static uint8_t USBD_GetLen(uint8_t *buf)
 823:Middlewares/ST/STM32_USB_Device_Library/Core/Src/usbd_ctlreq.c **** {
  29              		.loc 1 823 1 view -0
  30              		.cfi_startproc
  31              		@ args = 0, pretend = 0, frame = 0
  32              		@ frame_needed = 0, uses_anonymous_args = 0
  33              		@ link register save eliminated.
ARM GAS  /var/folders/jr/lt9tb7vj2871x9rxdxc0hz4h0000gn/T//ccaStH1G.s 			page 16


  34              		.loc 1 823 1 is_stmt 0 view .LVU1
  35 0000 0346     		mov	r3, r0
 824:Middlewares/ST/STM32_USB_Device_Library/Core/Src/usbd_ctlreq.c ****     uint8_t  len = 0U;
  36              		.loc 1 824 5 is_stmt 1 view .LVU2
  37              	.LVL1:
 825:Middlewares/ST/STM32_USB_Device_Library/Core/Src/usbd_ctlreq.c **** 
 826:Middlewares/ST/STM32_USB_Device_Library/Core/Src/usbd_ctlreq.c ****     while (*buf != '\0')
  38              		.loc 1 826 5 view .LVU3
 824:Middlewares/ST/STM32_USB_Device_Library/Core/Src/usbd_ctlreq.c ****     uint8_t  len = 0U;
  39              		.loc 1 824 14 is_stmt 0 view .LVU4
  40 0002 0020     		movs	r0, #0
  41              	.LVL2:
  42              		.loc 1 826 11 view .LVU5
  43 0004 02E0     		b	.L2
  44              	.LVL3:
  45              	.L3:
 827:Middlewares/ST/STM32_USB_Device_Library/Core/Src/usbd_ctlreq.c ****     {
 828:Middlewares/ST/STM32_USB_Device_Library/Core/Src/usbd_ctlreq.c ****         len++;
  46              		.loc 1 828 9 is_stmt 1 view .LVU6
  47              		.loc 1 828 12 is_stmt 0 view .LVU7
  48 0006 0130     		adds	r0, r0, #1
  49              	.LVL4:
  50              		.loc 1 828 12 view .LVU8
  51 0008 C0B2     		uxtb	r0, r0
  52              	.LVL5:
 829:Middlewares/ST/STM32_USB_Device_Library/Core/Src/usbd_ctlreq.c ****         buf++;
  53              		.loc 1 829 9 is_stmt 1 view .LVU9
  54              		.loc 1 829 12 is_stmt 0 view .LVU10
  55 000a 0133     		adds	r3, r3, #1
  56              	.LVL6:
  57              	.L2:
 826:Middlewares/ST/STM32_USB_Device_Library/Core/Src/usbd_ctlreq.c ****     {
  58              		.loc 1 826 17 is_stmt 1 view .LVU11
 826:Middlewares/ST/STM32_USB_Device_Library/Core/Src/usbd_ctlreq.c ****     {
  59              		.loc 1 826 12 is_stmt 0 view .LVU12
  60 000c 1A78     		ldrb	r2, [r3]	@ zero_extendqisi2
 826:Middlewares/ST/STM32_USB_Device_Library/Core/Src/usbd_ctlreq.c ****     {
  61              		.loc 1 826 17 view .LVU13
  62 000e 002A     		cmp	r2, #0
  63 0010 F9D1     		bne	.L3
 830:Middlewares/ST/STM32_USB_Device_Library/Core/Src/usbd_ctlreq.c ****     }
 831:Middlewares/ST/STM32_USB_Device_Library/Core/Src/usbd_ctlreq.c **** 
 832:Middlewares/ST/STM32_USB_Device_Library/Core/Src/usbd_ctlreq.c ****     return len;
  64              		.loc 1 832 5 is_stmt 1 view .LVU14
 833:Middlewares/ST/STM32_USB_Device_Library/Core/Src/usbd_ctlreq.c **** }
  65              		.loc 1 833 1 is_stmt 0 view .LVU15
  66 0012 7047     		bx	lr
  67              		.cfi_endproc
  68              	.LFE146:
  70              		.section	.text.USBD_SetFeature,"ax",%progbits
  71              		.align	1
  72              		.syntax unified
  73              		.thumb
  74              		.thumb_func
  76              	USBD_SetFeature:
  77              	.LVL7:
  78              	.LFB141:
ARM GAS  /var/folders/jr/lt9tb7vj2871x9rxdxc0hz4h0000gn/T//ccaStH1G.s 			page 17


 717:Middlewares/ST/STM32_USB_Device_Library/Core/Src/usbd_ctlreq.c **** 
  79              		.loc 1 717 1 is_stmt 1 view -0
  80              		.cfi_startproc
  81              		@ args = 0, pretend = 0, frame = 0
  82              		@ frame_needed = 0, uses_anonymous_args = 0
 717:Middlewares/ST/STM32_USB_Device_Library/Core/Src/usbd_ctlreq.c **** 
  83              		.loc 1 717 1 is_stmt 0 view .LVU17
  84 0000 08B5     		push	{r3, lr}
  85              	.LCFI0:
  86              		.cfi_def_cfa_offset 8
  87              		.cfi_offset 3, -8
  88              		.cfi_offset 14, -4
 719:Middlewares/ST/STM32_USB_Device_Library/Core/Src/usbd_ctlreq.c ****   {
  89              		.loc 1 719 3 is_stmt 1 view .LVU18
 719:Middlewares/ST/STM32_USB_Device_Library/Core/Src/usbd_ctlreq.c ****   {
  90              		.loc 1 719 10 is_stmt 0 view .LVU19
  91 0002 4B88     		ldrh	r3, [r1, #2]
 719:Middlewares/ST/STM32_USB_Device_Library/Core/Src/usbd_ctlreq.c ****   {
  92              		.loc 1 719 6 view .LVU20
  93 0004 012B     		cmp	r3, #1
  94 0006 00D0     		beq	.L7
  95              	.LVL8:
  96              	.L4:
 725:Middlewares/ST/STM32_USB_Device_Library/Core/Src/usbd_ctlreq.c **** 
  97              		.loc 1 725 1 view .LVU21
  98 0008 08BD     		pop	{r3, pc}
  99              	.LVL9:
 100              	.L7:
 721:Middlewares/ST/STM32_USB_Device_Library/Core/Src/usbd_ctlreq.c ****     USBD_CtlSendStatus(pdev);
 101              		.loc 1 721 5 is_stmt 1 view .LVU22
 721:Middlewares/ST/STM32_USB_Device_Library/Core/Src/usbd_ctlreq.c ****     USBD_CtlSendStatus(pdev);
 102              		.loc 1 721 29 is_stmt 0 view .LVU23
 103 000a C0F87C32 		str	r3, [r0, #636]
 722:Middlewares/ST/STM32_USB_Device_Library/Core/Src/usbd_ctlreq.c ****   }
 104              		.loc 1 722 5 is_stmt 1 view .LVU24
 105 000e FFF7FEFF 		bl	USBD_CtlSendStatus
 106              	.LVL10:
 725:Middlewares/ST/STM32_USB_Device_Library/Core/Src/usbd_ctlreq.c **** 
 107              		.loc 1 725 1 is_stmt 0 view .LVU25
 108 0012 F9E7     		b	.L4
 109              		.cfi_endproc
 110              	.LFE141:
 112              		.section	.text.USBD_ParseSetupRequest,"ax",%progbits
 113              		.align	1
 114              		.global	USBD_ParseSetupRequest
 115              		.syntax unified
 116              		.thumb
 117              		.thumb_func
 119              	USBD_ParseSetupRequest:
 120              	.LVL11:
 121              	.LFB143:
 765:Middlewares/ST/STM32_USB_Device_Library/Core/Src/usbd_ctlreq.c ****   req->bmRequest     = *(uint8_t *)  (pdata);
 122              		.loc 1 765 1 is_stmt 1 view -0
 123              		.cfi_startproc
 124              		@ args = 0, pretend = 0, frame = 0
 125              		@ frame_needed = 0, uses_anonymous_args = 0
 126              		@ link register save eliminated.
ARM GAS  /var/folders/jr/lt9tb7vj2871x9rxdxc0hz4h0000gn/T//ccaStH1G.s 			page 18


 766:Middlewares/ST/STM32_USB_Device_Library/Core/Src/usbd_ctlreq.c ****   req->bRequest      = *(uint8_t *)  (pdata +  1);
 127              		.loc 1 766 3 view .LVU27
 766:Middlewares/ST/STM32_USB_Device_Library/Core/Src/usbd_ctlreq.c ****   req->bRequest      = *(uint8_t *)  (pdata +  1);
 128              		.loc 1 766 24 is_stmt 0 view .LVU28
 129 0000 0B78     		ldrb	r3, [r1]	@ zero_extendqisi2
 766:Middlewares/ST/STM32_USB_Device_Library/Core/Src/usbd_ctlreq.c ****   req->bRequest      = *(uint8_t *)  (pdata +  1);
 130              		.loc 1 766 22 view .LVU29
 131 0002 0370     		strb	r3, [r0]
 767:Middlewares/ST/STM32_USB_Device_Library/Core/Src/usbd_ctlreq.c ****   req->wValue        = SWAPBYTE      (pdata +  2);
 132              		.loc 1 767 3 is_stmt 1 view .LVU30
 767:Middlewares/ST/STM32_USB_Device_Library/Core/Src/usbd_ctlreq.c ****   req->wValue        = SWAPBYTE      (pdata +  2);
 133              		.loc 1 767 22 is_stmt 0 view .LVU31
 134 0004 4B78     		ldrb	r3, [r1, #1]	@ zero_extendqisi2
 135 0006 4370     		strb	r3, [r0, #1]
 768:Middlewares/ST/STM32_USB_Device_Library/Core/Src/usbd_ctlreq.c ****   req->wIndex        = SWAPBYTE      (pdata +  4);
 136              		.loc 1 768 3 is_stmt 1 view .LVU32
 768:Middlewares/ST/STM32_USB_Device_Library/Core/Src/usbd_ctlreq.c ****   req->wIndex        = SWAPBYTE      (pdata +  4);
 137              		.loc 1 768 24 is_stmt 0 view .LVU33
 138 0008 8B78     		ldrb	r3, [r1, #2]	@ zero_extendqisi2
 139 000a CA78     		ldrb	r2, [r1, #3]	@ zero_extendqisi2
 140 000c 03EB0223 		add	r3, r3, r2, lsl #8
 768:Middlewares/ST/STM32_USB_Device_Library/Core/Src/usbd_ctlreq.c ****   req->wIndex        = SWAPBYTE      (pdata +  4);
 141              		.loc 1 768 22 view .LVU34
 142 0010 4380     		strh	r3, [r0, #2]	@ movhi
 769:Middlewares/ST/STM32_USB_Device_Library/Core/Src/usbd_ctlreq.c ****   req->wLength       = SWAPBYTE      (pdata +  6);
 143              		.loc 1 769 3 is_stmt 1 view .LVU35
 769:Middlewares/ST/STM32_USB_Device_Library/Core/Src/usbd_ctlreq.c ****   req->wLength       = SWAPBYTE      (pdata +  6);
 144              		.loc 1 769 24 is_stmt 0 view .LVU36
 145 0012 0B79     		ldrb	r3, [r1, #4]	@ zero_extendqisi2
 146 0014 4A79     		ldrb	r2, [r1, #5]	@ zero_extendqisi2
 147 0016 03EB0223 		add	r3, r3, r2, lsl #8
 769:Middlewares/ST/STM32_USB_Device_Library/Core/Src/usbd_ctlreq.c ****   req->wLength       = SWAPBYTE      (pdata +  6);
 148              		.loc 1 769 22 view .LVU37
 149 001a 8380     		strh	r3, [r0, #4]	@ movhi
 770:Middlewares/ST/STM32_USB_Device_Library/Core/Src/usbd_ctlreq.c **** 
 150              		.loc 1 770 3 is_stmt 1 view .LVU38
 770:Middlewares/ST/STM32_USB_Device_Library/Core/Src/usbd_ctlreq.c **** 
 151              		.loc 1 770 24 is_stmt 0 view .LVU39
 152 001c 8B79     		ldrb	r3, [r1, #6]	@ zero_extendqisi2
 153 001e CA79     		ldrb	r2, [r1, #7]	@ zero_extendqisi2
 154 0020 03EB0223 		add	r3, r3, r2, lsl #8
 770:Middlewares/ST/STM32_USB_Device_Library/Core/Src/usbd_ctlreq.c **** 
 155              		.loc 1 770 22 view .LVU40
 156 0024 C380     		strh	r3, [r0, #6]	@ movhi
 772:Middlewares/ST/STM32_USB_Device_Library/Core/Src/usbd_ctlreq.c **** 
 157              		.loc 1 772 1 view .LVU41
 158 0026 7047     		bx	lr
 159              		.cfi_endproc
 160              	.LFE143:
 162              		.section	.text.USBD_CtlError,"ax",%progbits
 163              		.align	1
 164              		.global	USBD_CtlError
 165              		.syntax unified
 166              		.thumb
 167              		.thumb_func
 169              	USBD_CtlError:
 170              	.LVL12:
ARM GAS  /var/folders/jr/lt9tb7vj2871x9rxdxc0hz4h0000gn/T//ccaStH1G.s 			page 19


 171              	.LFB144:
 784:Middlewares/ST/STM32_USB_Device_Library/Core/Src/usbd_ctlreq.c ****   USBD_LL_StallEP(pdev , 0x80U);
 172              		.loc 1 784 1 is_stmt 1 view -0
 173              		.cfi_startproc
 174              		@ args = 0, pretend = 0, frame = 0
 175              		@ frame_needed = 0, uses_anonymous_args = 0
 784:Middlewares/ST/STM32_USB_Device_Library/Core/Src/usbd_ctlreq.c ****   USBD_LL_StallEP(pdev , 0x80U);
 176              		.loc 1 784 1 is_stmt 0 view .LVU43
 177 0000 10B5     		push	{r4, lr}
 178              	.LCFI1:
 179              		.cfi_def_cfa_offset 8
 180              		.cfi_offset 4, -8
 181              		.cfi_offset 14, -4
 182 0002 0446     		mov	r4, r0
 785:Middlewares/ST/STM32_USB_Device_Library/Core/Src/usbd_ctlreq.c ****   USBD_LL_StallEP(pdev , 0U);
 183              		.loc 1 785 3 is_stmt 1 view .LVU44
 184 0004 8021     		movs	r1, #128
 185              	.LVL13:
 785:Middlewares/ST/STM32_USB_Device_Library/Core/Src/usbd_ctlreq.c ****   USBD_LL_StallEP(pdev , 0U);
 186              		.loc 1 785 3 is_stmt 0 view .LVU45
 187 0006 FFF7FEFF 		bl	USBD_LL_StallEP
 188              	.LVL14:
 786:Middlewares/ST/STM32_USB_Device_Library/Core/Src/usbd_ctlreq.c **** }
 189              		.loc 1 786 3 is_stmt 1 view .LVU46
 190 000a 0021     		movs	r1, #0
 191 000c 2046     		mov	r0, r4
 192 000e FFF7FEFF 		bl	USBD_LL_StallEP
 193              	.LVL15:
 787:Middlewares/ST/STM32_USB_Device_Library/Core/Src/usbd_ctlreq.c **** 
 194              		.loc 1 787 1 is_stmt 0 view .LVU47
 195 0012 10BD     		pop	{r4, pc}
 787:Middlewares/ST/STM32_USB_Device_Library/Core/Src/usbd_ctlreq.c **** 
 196              		.loc 1 787 1 view .LVU48
 197              		.cfi_endproc
 198              	.LFE144:
 200              		.section	.text.USBD_GetDescriptor,"ax",%progbits
 201              		.align	1
 202              		.syntax unified
 203              		.thumb
 204              		.thumb_func
 206              	USBD_GetDescriptor:
 207              	.LVL16:
 208              	.LFB136:
 405:Middlewares/ST/STM32_USB_Device_Library/Core/Src/usbd_ctlreq.c ****   uint16_t len;
 209              		.loc 1 405 1 is_stmt 1 view -0
 210              		.cfi_startproc
 211              		@ args = 0, pretend = 0, frame = 8
 212              		@ frame_needed = 0, uses_anonymous_args = 0
 405:Middlewares/ST/STM32_USB_Device_Library/Core/Src/usbd_ctlreq.c ****   uint16_t len;
 213              		.loc 1 405 1 is_stmt 0 view .LVU50
 214 0000 30B5     		push	{r4, r5, lr}
 215              	.LCFI2:
 216              		.cfi_def_cfa_offset 12
 217              		.cfi_offset 4, -12
 218              		.cfi_offset 5, -8
 219              		.cfi_offset 14, -4
 220 0002 83B0     		sub	sp, sp, #12
ARM GAS  /var/folders/jr/lt9tb7vj2871x9rxdxc0hz4h0000gn/T//ccaStH1G.s 			page 20


 221              	.LCFI3:
 222              		.cfi_def_cfa_offset 24
 223 0004 0546     		mov	r5, r0
 224 0006 0C46     		mov	r4, r1
 406:Middlewares/ST/STM32_USB_Device_Library/Core/Src/usbd_ctlreq.c ****   uint8_t *pbuf;
 225              		.loc 1 406 3 is_stmt 1 view .LVU51
 407:Middlewares/ST/STM32_USB_Device_Library/Core/Src/usbd_ctlreq.c **** 
 226              		.loc 1 407 3 view .LVU52
 410:Middlewares/ST/STM32_USB_Device_Library/Core/Src/usbd_ctlreq.c ****   {
 227              		.loc 1 410 3 view .LVU53
 410:Middlewares/ST/STM32_USB_Device_Library/Core/Src/usbd_ctlreq.c ****   {
 228              		.loc 1 410 14 is_stmt 0 view .LVU54
 229 0008 4A88     		ldrh	r2, [r1, #2]
 410:Middlewares/ST/STM32_USB_Device_Library/Core/Src/usbd_ctlreq.c ****   {
 230              		.loc 1 410 23 view .LVU55
 231 000a 130A     		lsrs	r3, r2, #8
 410:Middlewares/ST/STM32_USB_Device_Library/Core/Src/usbd_ctlreq.c ****   {
 232              		.loc 1 410 3 view .LVU56
 233 000c 013B     		subs	r3, r3, #1
 234 000e 062B     		cmp	r3, #6
 235 0010 00F28480 		bhi	.L12
 236 0014 DFE803F0 		tbb	[pc, r3]
 237              	.LVL17:
 238              	.L14:
 239 0018 04       		.byte	(.L18-.L14)/2
 240 0019 16       		.byte	(.L17-.L14)/2
 241 001a 2A       		.byte	(.L16-.L14)/2
 242 001b 82       		.byte	(.L12-.L14)/2
 243 001c 82       		.byte	(.L12-.L14)/2
 244 001d 66       		.byte	(.L15-.L14)/2
 245 001e 73       		.byte	(.L13-.L14)/2
 246 001f 00       		.p2align 1
 247              	.L18:
 418:Middlewares/ST/STM32_USB_Device_Library/Core/Src/usbd_ctlreq.c ****     break;
 248              		.loc 1 418 5 is_stmt 1 view .LVU57
 418:Middlewares/ST/STM32_USB_Device_Library/Core/Src/usbd_ctlreq.c ****     break;
 249              		.loc 1 418 16 is_stmt 0 view .LVU58
 250 0020 D0F88832 		ldr	r3, [r0, #648]
 418:Middlewares/ST/STM32_USB_Device_Library/Core/Src/usbd_ctlreq.c ****     break;
 251              		.loc 1 418 23 view .LVU59
 252 0024 1B68     		ldr	r3, [r3]
 418:Middlewares/ST/STM32_USB_Device_Library/Core/Src/usbd_ctlreq.c ****     break;
 253              		.loc 1 418 12 view .LVU60
 254 0026 0DF10601 		add	r1, sp, #6
 255 002a 007C     		ldrb	r0, [r0, #16]	@ zero_extendqisi2
 256              	.LVL18:
 418:Middlewares/ST/STM32_USB_Device_Library/Core/Src/usbd_ctlreq.c ****     break;
 257              		.loc 1 418 12 view .LVU61
 258 002c 9847     		blx	r3
 259              	.LVL19:
 419:Middlewares/ST/STM32_USB_Device_Library/Core/Src/usbd_ctlreq.c **** 
 260              		.loc 1 419 5 is_stmt 1 view .LVU62
 261              	.L19:
 502:Middlewares/ST/STM32_USB_Device_Library/Core/Src/usbd_ctlreq.c ****   {
 262              		.loc 1 502 3 view .LVU63
 502:Middlewares/ST/STM32_USB_Device_Library/Core/Src/usbd_ctlreq.c ****   {
 263              		.loc 1 502 11 is_stmt 0 view .LVU64
ARM GAS  /var/folders/jr/lt9tb7vj2871x9rxdxc0hz4h0000gn/T//ccaStH1G.s 			page 21


 264 002e BDF80620 		ldrh	r2, [sp, #6]
 502:Middlewares/ST/STM32_USB_Device_Library/Core/Src/usbd_ctlreq.c ****   {
 265              		.loc 1 502 5 view .LVU65
 266 0032 12B1     		cbz	r2, .L32
 502:Middlewares/ST/STM32_USB_Device_Library/Core/Src/usbd_ctlreq.c ****   {
 267              		.loc 1 502 25 discriminator 1 view .LVU66
 268 0034 E388     		ldrh	r3, [r4, #6]
 502:Middlewares/ST/STM32_USB_Device_Library/Core/Src/usbd_ctlreq.c ****   {
 269              		.loc 1 502 18 discriminator 1 view .LVU67
 270 0036 002B     		cmp	r3, #0
 271 0038 74D1     		bne	.L36
 272              	.LVL20:
 273              	.L32:
 510:Middlewares/ST/STM32_USB_Device_Library/Core/Src/usbd_ctlreq.c ****   {
 274              		.loc 1 510 3 is_stmt 1 view .LVU68
 510:Middlewares/ST/STM32_USB_Device_Library/Core/Src/usbd_ctlreq.c ****   {
 275              		.loc 1 510 9 is_stmt 0 view .LVU69
 276 003a E388     		ldrh	r3, [r4, #6]
 510:Middlewares/ST/STM32_USB_Device_Library/Core/Src/usbd_ctlreq.c ****   {
 277              		.loc 1 510 5 view .LVU70
 278 003c 002B     		cmp	r3, #0
 279 003e 7BD0     		beq	.L37
 280              	.L11:
 514:Middlewares/ST/STM32_USB_Device_Library/Core/Src/usbd_ctlreq.c **** 
 281              		.loc 1 514 1 view .LVU71
 282 0040 03B0     		add	sp, sp, #12
 283              	.LCFI4:
 284              		.cfi_remember_state
 285              		.cfi_def_cfa_offset 12
 286              		@ sp needed
 287 0042 30BD     		pop	{r4, r5, pc}
 288              	.LVL21:
 289              	.L17:
 290              	.LCFI5:
 291              		.cfi_restore_state
 422:Middlewares/ST/STM32_USB_Device_Library/Core/Src/usbd_ctlreq.c ****     {
 292              		.loc 1 422 5 is_stmt 1 view .LVU72
 422:Middlewares/ST/STM32_USB_Device_Library/Core/Src/usbd_ctlreq.c ****     {
 293              		.loc 1 422 12 is_stmt 0 view .LVU73
 294 0044 037C     		ldrb	r3, [r0, #16]	@ zero_extendqisi2
 422:Middlewares/ST/STM32_USB_Device_Library/Core/Src/usbd_ctlreq.c ****     {
 295              		.loc 1 422 7 view .LVU74
 296 0046 43B9     		cbnz	r3, .L20
 424:Middlewares/ST/STM32_USB_Device_Library/Core/Src/usbd_ctlreq.c ****       pbuf[1] = USB_DESC_TYPE_CONFIGURATION;
 297              		.loc 1 424 7 is_stmt 1 view .LVU75
 424:Middlewares/ST/STM32_USB_Device_Library/Core/Src/usbd_ctlreq.c ****       pbuf[1] = USB_DESC_TYPE_CONFIGURATION;
 298              		.loc 1 424 31 is_stmt 0 view .LVU76
 299 0048 D0F88C32 		ldr	r3, [r0, #652]
 424:Middlewares/ST/STM32_USB_Device_Library/Core/Src/usbd_ctlreq.c ****       pbuf[1] = USB_DESC_TYPE_CONFIGURATION;
 300              		.loc 1 424 39 view .LVU77
 301 004c 9B6A     		ldr	r3, [r3, #40]
 424:Middlewares/ST/STM32_USB_Device_Library/Core/Src/usbd_ctlreq.c ****       pbuf[1] = USB_DESC_TYPE_CONFIGURATION;
 302              		.loc 1 424 16 view .LVU78
 303 004e 0DF10600 		add	r0, sp, #6
 304              	.LVL22:
 424:Middlewares/ST/STM32_USB_Device_Library/Core/Src/usbd_ctlreq.c ****       pbuf[1] = USB_DESC_TYPE_CONFIGURATION;
 305              		.loc 1 424 16 view .LVU79
ARM GAS  /var/folders/jr/lt9tb7vj2871x9rxdxc0hz4h0000gn/T//ccaStH1G.s 			page 22


 306 0052 9847     		blx	r3
 307              	.LVL23:
 425:Middlewares/ST/STM32_USB_Device_Library/Core/Src/usbd_ctlreq.c ****     }
 308              		.loc 1 425 7 is_stmt 1 view .LVU80
 425:Middlewares/ST/STM32_USB_Device_Library/Core/Src/usbd_ctlreq.c ****     }
 309              		.loc 1 425 15 is_stmt 0 view .LVU81
 310 0054 0223     		movs	r3, #2
 311 0056 4370     		strb	r3, [r0, #1]
 312 0058 E9E7     		b	.L19
 313              	.LVL24:
 314              	.L20:
 429:Middlewares/ST/STM32_USB_Device_Library/Core/Src/usbd_ctlreq.c ****       pbuf[1] = USB_DESC_TYPE_CONFIGURATION;
 315              		.loc 1 429 7 is_stmt 1 view .LVU82
 429:Middlewares/ST/STM32_USB_Device_Library/Core/Src/usbd_ctlreq.c ****       pbuf[1] = USB_DESC_TYPE_CONFIGURATION;
 316              		.loc 1 429 31 is_stmt 0 view .LVU83
 317 005a D0F88C32 		ldr	r3, [r0, #652]
 429:Middlewares/ST/STM32_USB_Device_Library/Core/Src/usbd_ctlreq.c ****       pbuf[1] = USB_DESC_TYPE_CONFIGURATION;
 318              		.loc 1 429 39 view .LVU84
 319 005e DB6A     		ldr	r3, [r3, #44]
 429:Middlewares/ST/STM32_USB_Device_Library/Core/Src/usbd_ctlreq.c ****       pbuf[1] = USB_DESC_TYPE_CONFIGURATION;
 320              		.loc 1 429 16 view .LVU85
 321 0060 0DF10600 		add	r0, sp, #6
 322              	.LVL25:
 429:Middlewares/ST/STM32_USB_Device_Library/Core/Src/usbd_ctlreq.c ****       pbuf[1] = USB_DESC_TYPE_CONFIGURATION;
 323              		.loc 1 429 16 view .LVU86
 324 0064 9847     		blx	r3
 325              	.LVL26:
 430:Middlewares/ST/STM32_USB_Device_Library/Core/Src/usbd_ctlreq.c ****     }
 326              		.loc 1 430 7 is_stmt 1 view .LVU87
 430:Middlewares/ST/STM32_USB_Device_Library/Core/Src/usbd_ctlreq.c ****     }
 327              		.loc 1 430 15 is_stmt 0 view .LVU88
 328 0066 0223     		movs	r3, #2
 329 0068 4370     		strb	r3, [r0, #1]
 330 006a E0E7     		b	.L19
 331              	.LVL27:
 332              	.L16:
 435:Middlewares/ST/STM32_USB_Device_Library/Core/Src/usbd_ctlreq.c ****     {
 333              		.loc 1 435 5 is_stmt 1 view .LVU89
 435:Middlewares/ST/STM32_USB_Device_Library/Core/Src/usbd_ctlreq.c ****     {
 334              		.loc 1 435 13 is_stmt 0 view .LVU90
 335 006c D2B2     		uxtb	r2, r2
 336 006e 052A     		cmp	r2, #5
 337 0070 34D8     		bhi	.L21
 338 0072 DFE802F0 		tbb	[pc, r2]
 339              	.L23:
 340 0076 03       		.byte	(.L28-.L23)/2
 341 0077 0B       		.byte	(.L27-.L23)/2
 342 0078 13       		.byte	(.L26-.L23)/2
 343 0079 1B       		.byte	(.L25-.L23)/2
 344 007a 23       		.byte	(.L24-.L23)/2
 345 007b 2B       		.byte	(.L22-.L23)/2
 346              		.p2align 1
 347              	.L28:
 438:Middlewares/ST/STM32_USB_Device_Library/Core/Src/usbd_ctlreq.c ****       break;
 348              		.loc 1 438 6 is_stmt 1 view .LVU91
 438:Middlewares/ST/STM32_USB_Device_Library/Core/Src/usbd_ctlreq.c ****       break;
 349              		.loc 1 438 17 is_stmt 0 view .LVU92
ARM GAS  /var/folders/jr/lt9tb7vj2871x9rxdxc0hz4h0000gn/T//ccaStH1G.s 			page 23


 350 007c D0F88832 		ldr	r3, [r0, #648]
 438:Middlewares/ST/STM32_USB_Device_Library/Core/Src/usbd_ctlreq.c ****       break;
 351              		.loc 1 438 24 view .LVU93
 352 0080 5B68     		ldr	r3, [r3, #4]
 438:Middlewares/ST/STM32_USB_Device_Library/Core/Src/usbd_ctlreq.c ****       break;
 353              		.loc 1 438 13 view .LVU94
 354 0082 0DF10601 		add	r1, sp, #6
 355 0086 007C     		ldrb	r0, [r0, #16]	@ zero_extendqisi2
 356              	.LVL28:
 438:Middlewares/ST/STM32_USB_Device_Library/Core/Src/usbd_ctlreq.c ****       break;
 357              		.loc 1 438 13 view .LVU95
 358 0088 9847     		blx	r3
 359              	.LVL29:
 439:Middlewares/ST/STM32_USB_Device_Library/Core/Src/usbd_ctlreq.c **** 
 360              		.loc 1 439 7 is_stmt 1 view .LVU96
 361 008a D0E7     		b	.L19
 362              	.LVL30:
 363              	.L27:
 442:Middlewares/ST/STM32_USB_Device_Library/Core/Src/usbd_ctlreq.c ****       break;
 364              		.loc 1 442 7 view .LVU97
 442:Middlewares/ST/STM32_USB_Device_Library/Core/Src/usbd_ctlreq.c ****       break;
 365              		.loc 1 442 18 is_stmt 0 view .LVU98
 366 008c D0F88832 		ldr	r3, [r0, #648]
 442:Middlewares/ST/STM32_USB_Device_Library/Core/Src/usbd_ctlreq.c ****       break;
 367              		.loc 1 442 25 view .LVU99
 368 0090 9B68     		ldr	r3, [r3, #8]
 442:Middlewares/ST/STM32_USB_Device_Library/Core/Src/usbd_ctlreq.c ****       break;
 369              		.loc 1 442 14 view .LVU100
 370 0092 0DF10601 		add	r1, sp, #6
 371 0096 007C     		ldrb	r0, [r0, #16]	@ zero_extendqisi2
 372              	.LVL31:
 442:Middlewares/ST/STM32_USB_Device_Library/Core/Src/usbd_ctlreq.c ****       break;
 373              		.loc 1 442 14 view .LVU101
 374 0098 9847     		blx	r3
 375              	.LVL32:
 443:Middlewares/ST/STM32_USB_Device_Library/Core/Src/usbd_ctlreq.c **** 
 376              		.loc 1 443 7 is_stmt 1 view .LVU102
 377 009a C8E7     		b	.L19
 378              	.LVL33:
 379              	.L26:
 446:Middlewares/ST/STM32_USB_Device_Library/Core/Src/usbd_ctlreq.c ****       break;
 380              		.loc 1 446 7 view .LVU103
 446:Middlewares/ST/STM32_USB_Device_Library/Core/Src/usbd_ctlreq.c ****       break;
 381              		.loc 1 446 18 is_stmt 0 view .LVU104
 382 009c D0F88832 		ldr	r3, [r0, #648]
 446:Middlewares/ST/STM32_USB_Device_Library/Core/Src/usbd_ctlreq.c ****       break;
 383              		.loc 1 446 25 view .LVU105
 384 00a0 DB68     		ldr	r3, [r3, #12]
 446:Middlewares/ST/STM32_USB_Device_Library/Core/Src/usbd_ctlreq.c ****       break;
 385              		.loc 1 446 14 view .LVU106
 386 00a2 0DF10601 		add	r1, sp, #6
 387 00a6 007C     		ldrb	r0, [r0, #16]	@ zero_extendqisi2
 388              	.LVL34:
 446:Middlewares/ST/STM32_USB_Device_Library/Core/Src/usbd_ctlreq.c ****       break;
 389              		.loc 1 446 14 view .LVU107
 390 00a8 9847     		blx	r3
 391              	.LVL35:
ARM GAS  /var/folders/jr/lt9tb7vj2871x9rxdxc0hz4h0000gn/T//ccaStH1G.s 			page 24


 447:Middlewares/ST/STM32_USB_Device_Library/Core/Src/usbd_ctlreq.c **** 
 392              		.loc 1 447 7 is_stmt 1 view .LVU108
 393 00aa C0E7     		b	.L19
 394              	.LVL36:
 395              	.L25:
 450:Middlewares/ST/STM32_USB_Device_Library/Core/Src/usbd_ctlreq.c ****       break;
 396              		.loc 1 450 7 view .LVU109
 450:Middlewares/ST/STM32_USB_Device_Library/Core/Src/usbd_ctlreq.c ****       break;
 397              		.loc 1 450 18 is_stmt 0 view .LVU110
 398 00ac D0F88832 		ldr	r3, [r0, #648]
 450:Middlewares/ST/STM32_USB_Device_Library/Core/Src/usbd_ctlreq.c ****       break;
 399              		.loc 1 450 25 view .LVU111
 400 00b0 1B69     		ldr	r3, [r3, #16]
 450:Middlewares/ST/STM32_USB_Device_Library/Core/Src/usbd_ctlreq.c ****       break;
 401              		.loc 1 450 14 view .LVU112
 402 00b2 0DF10601 		add	r1, sp, #6
 403 00b6 007C     		ldrb	r0, [r0, #16]	@ zero_extendqisi2
 404              	.LVL37:
 450:Middlewares/ST/STM32_USB_Device_Library/Core/Src/usbd_ctlreq.c ****       break;
 405              		.loc 1 450 14 view .LVU113
 406 00b8 9847     		blx	r3
 407              	.LVL38:
 451:Middlewares/ST/STM32_USB_Device_Library/Core/Src/usbd_ctlreq.c **** 
 408              		.loc 1 451 7 is_stmt 1 view .LVU114
 409 00ba B8E7     		b	.L19
 410              	.LVL39:
 411              	.L24:
 454:Middlewares/ST/STM32_USB_Device_Library/Core/Src/usbd_ctlreq.c ****       break;
 412              		.loc 1 454 7 view .LVU115
 454:Middlewares/ST/STM32_USB_Device_Library/Core/Src/usbd_ctlreq.c ****       break;
 413              		.loc 1 454 18 is_stmt 0 view .LVU116
 414 00bc D0F88832 		ldr	r3, [r0, #648]
 454:Middlewares/ST/STM32_USB_Device_Library/Core/Src/usbd_ctlreq.c ****       break;
 415              		.loc 1 454 25 view .LVU117
 416 00c0 5B69     		ldr	r3, [r3, #20]
 454:Middlewares/ST/STM32_USB_Device_Library/Core/Src/usbd_ctlreq.c ****       break;
 417              		.loc 1 454 14 view .LVU118
 418 00c2 0DF10601 		add	r1, sp, #6
 419 00c6 007C     		ldrb	r0, [r0, #16]	@ zero_extendqisi2
 420              	.LVL40:
 454:Middlewares/ST/STM32_USB_Device_Library/Core/Src/usbd_ctlreq.c ****       break;
 421              		.loc 1 454 14 view .LVU119
 422 00c8 9847     		blx	r3
 423              	.LVL41:
 455:Middlewares/ST/STM32_USB_Device_Library/Core/Src/usbd_ctlreq.c **** 
 424              		.loc 1 455 7 is_stmt 1 view .LVU120
 425 00ca B0E7     		b	.L19
 426              	.LVL42:
 427              	.L22:
 458:Middlewares/ST/STM32_USB_Device_Library/Core/Src/usbd_ctlreq.c ****       break;
 428              		.loc 1 458 7 view .LVU121
 458:Middlewares/ST/STM32_USB_Device_Library/Core/Src/usbd_ctlreq.c ****       break;
 429              		.loc 1 458 18 is_stmt 0 view .LVU122
 430 00cc D0F88832 		ldr	r3, [r0, #648]
 458:Middlewares/ST/STM32_USB_Device_Library/Core/Src/usbd_ctlreq.c ****       break;
 431              		.loc 1 458 25 view .LVU123
 432 00d0 9B69     		ldr	r3, [r3, #24]
ARM GAS  /var/folders/jr/lt9tb7vj2871x9rxdxc0hz4h0000gn/T//ccaStH1G.s 			page 25


 458:Middlewares/ST/STM32_USB_Device_Library/Core/Src/usbd_ctlreq.c ****       break;
 433              		.loc 1 458 14 view .LVU124
 434 00d2 0DF10601 		add	r1, sp, #6
 435 00d6 007C     		ldrb	r0, [r0, #16]	@ zero_extendqisi2
 436              	.LVL43:
 458:Middlewares/ST/STM32_USB_Device_Library/Core/Src/usbd_ctlreq.c ****       break;
 437              		.loc 1 458 14 view .LVU125
 438 00d8 9847     		blx	r3
 439              	.LVL44:
 459:Middlewares/ST/STM32_USB_Device_Library/Core/Src/usbd_ctlreq.c **** 
 440              		.loc 1 459 7 is_stmt 1 view .LVU126
 441 00da A8E7     		b	.L19
 442              	.LVL45:
 443              	.L21:
 466:Middlewares/ST/STM32_USB_Device_Library/Core/Src/usbd_ctlreq.c ****       return;
 444              		.loc 1 466 8 view .LVU127
 445 00dc 2146     		mov	r1, r4
 446 00de FFF7FEFF 		bl	USBD_CtlError
 447              	.LVL46:
 467:Middlewares/ST/STM32_USB_Device_Library/Core/Src/usbd_ctlreq.c **** #endif
 448              		.loc 1 467 7 view .LVU128
 449 00e2 ADE7     		b	.L11
 450              	.LVL47:
 451              	.L15:
 473:Middlewares/ST/STM32_USB_Device_Library/Core/Src/usbd_ctlreq.c ****     {
 452              		.loc 1 473 5 view .LVU129
 473:Middlewares/ST/STM32_USB_Device_Library/Core/Src/usbd_ctlreq.c ****     {
 453              		.loc 1 473 12 is_stmt 0 view .LVU130
 454 00e4 037C     		ldrb	r3, [r0, #16]	@ zero_extendqisi2
 473:Middlewares/ST/STM32_USB_Device_Library/Core/Src/usbd_ctlreq.c ****     {
 455              		.loc 1 473 7 view .LVU131
 456 00e6 33B9     		cbnz	r3, .L30
 475:Middlewares/ST/STM32_USB_Device_Library/Core/Src/usbd_ctlreq.c ****       break;
 457              		.loc 1 475 7 is_stmt 1 view .LVU132
 475:Middlewares/ST/STM32_USB_Device_Library/Core/Src/usbd_ctlreq.c ****       break;
 458              		.loc 1 475 29 is_stmt 0 view .LVU133
 459 00e8 D0F88C32 		ldr	r3, [r0, #652]
 475:Middlewares/ST/STM32_USB_Device_Library/Core/Src/usbd_ctlreq.c ****       break;
 460              		.loc 1 475 37 view .LVU134
 461 00ec 5B6B     		ldr	r3, [r3, #52]
 475:Middlewares/ST/STM32_USB_Device_Library/Core/Src/usbd_ctlreq.c ****       break;
 462              		.loc 1 475 14 view .LVU135
 463 00ee 0DF10600 		add	r0, sp, #6
 464              	.LVL48:
 475:Middlewares/ST/STM32_USB_Device_Library/Core/Src/usbd_ctlreq.c ****       break;
 465              		.loc 1 475 14 view .LVU136
 466 00f2 9847     		blx	r3
 467              	.LVL49:
 476:Middlewares/ST/STM32_USB_Device_Library/Core/Src/usbd_ctlreq.c ****     }
 468              		.loc 1 476 7 is_stmt 1 view .LVU137
 469 00f4 9BE7     		b	.L19
 470              	.LVL50:
 471              	.L30:
 480:Middlewares/ST/STM32_USB_Device_Library/Core/Src/usbd_ctlreq.c ****       return;
 472              		.loc 1 480 7 view .LVU138
 473 00f6 2146     		mov	r1, r4
 474 00f8 FFF7FEFF 		bl	USBD_CtlError
ARM GAS  /var/folders/jr/lt9tb7vj2871x9rxdxc0hz4h0000gn/T//ccaStH1G.s 			page 26


 475              	.LVL51:
 481:Middlewares/ST/STM32_USB_Device_Library/Core/Src/usbd_ctlreq.c ****     }
 476              		.loc 1 481 7 view .LVU139
 477 00fc A0E7     		b	.L11
 478              	.LVL52:
 479              	.L13:
 485:Middlewares/ST/STM32_USB_Device_Library/Core/Src/usbd_ctlreq.c ****     {
 480              		.loc 1 485 5 view .LVU140
 485:Middlewares/ST/STM32_USB_Device_Library/Core/Src/usbd_ctlreq.c ****     {
 481              		.loc 1 485 12 is_stmt 0 view .LVU141
 482 00fe 037C     		ldrb	r3, [r0, #16]	@ zero_extendqisi2
 485:Middlewares/ST/STM32_USB_Device_Library/Core/Src/usbd_ctlreq.c ****     {
 483              		.loc 1 485 7 view .LVU142
 484 0100 43B9     		cbnz	r3, .L31
 487:Middlewares/ST/STM32_USB_Device_Library/Core/Src/usbd_ctlreq.c ****       pbuf[1] = USB_DESC_TYPE_OTHER_SPEED_CONFIGURATION;
 485              		.loc 1 487 7 is_stmt 1 view .LVU143
 487:Middlewares/ST/STM32_USB_Device_Library/Core/Src/usbd_ctlreq.c ****       pbuf[1] = USB_DESC_TYPE_OTHER_SPEED_CONFIGURATION;
 486              		.loc 1 487 31 is_stmt 0 view .LVU144
 487 0102 D0F88C32 		ldr	r3, [r0, #652]
 487:Middlewares/ST/STM32_USB_Device_Library/Core/Src/usbd_ctlreq.c ****       pbuf[1] = USB_DESC_TYPE_OTHER_SPEED_CONFIGURATION;
 488              		.loc 1 487 39 view .LVU145
 489 0106 1B6B     		ldr	r3, [r3, #48]
 487:Middlewares/ST/STM32_USB_Device_Library/Core/Src/usbd_ctlreq.c ****       pbuf[1] = USB_DESC_TYPE_OTHER_SPEED_CONFIGURATION;
 490              		.loc 1 487 16 view .LVU146
 491 0108 0DF10600 		add	r0, sp, #6
 492              	.LVL53:
 487:Middlewares/ST/STM32_USB_Device_Library/Core/Src/usbd_ctlreq.c ****       pbuf[1] = USB_DESC_TYPE_OTHER_SPEED_CONFIGURATION;
 493              		.loc 1 487 16 view .LVU147
 494 010c 9847     		blx	r3
 495              	.LVL54:
 488:Middlewares/ST/STM32_USB_Device_Library/Core/Src/usbd_ctlreq.c ****       break;
 496              		.loc 1 488 7 is_stmt 1 view .LVU148
 488:Middlewares/ST/STM32_USB_Device_Library/Core/Src/usbd_ctlreq.c ****       break;
 497              		.loc 1 488 15 is_stmt 0 view .LVU149
 498 010e 0723     		movs	r3, #7
 499 0110 4370     		strb	r3, [r0, #1]
 489:Middlewares/ST/STM32_USB_Device_Library/Core/Src/usbd_ctlreq.c ****     }
 500              		.loc 1 489 7 is_stmt 1 view .LVU150
 501 0112 8CE7     		b	.L19
 502              	.LVL55:
 503              	.L31:
 493:Middlewares/ST/STM32_USB_Device_Library/Core/Src/usbd_ctlreq.c ****       return;
 504              		.loc 1 493 7 view .LVU151
 505 0114 2146     		mov	r1, r4
 506 0116 FFF7FEFF 		bl	USBD_CtlError
 507              	.LVL56:
 494:Middlewares/ST/STM32_USB_Device_Library/Core/Src/usbd_ctlreq.c ****     }
 508              		.loc 1 494 7 view .LVU152
 509 011a 91E7     		b	.L11
 510              	.LVL57:
 511              	.L12:
 498:Middlewares/ST/STM32_USB_Device_Library/Core/Src/usbd_ctlreq.c ****     return;
 512              		.loc 1 498 6 view .LVU153
 513 011c 2146     		mov	r1, r4
 514 011e FFF7FEFF 		bl	USBD_CtlError
 515              	.LVL58:
 499:Middlewares/ST/STM32_USB_Device_Library/Core/Src/usbd_ctlreq.c ****   }
ARM GAS  /var/folders/jr/lt9tb7vj2871x9rxdxc0hz4h0000gn/T//ccaStH1G.s 			page 27


 516              		.loc 1 499 5 view .LVU154
 517 0122 8DE7     		b	.L11
 518              	.LVL59:
 519              	.L36:
 505:Middlewares/ST/STM32_USB_Device_Library/Core/Src/usbd_ctlreq.c **** 
 520              		.loc 1 505 5 view .LVU155
 505:Middlewares/ST/STM32_USB_Device_Library/Core/Src/usbd_ctlreq.c **** 
 521              		.loc 1 505 11 is_stmt 0 view .LVU156
 522 0124 9A42     		cmp	r2, r3
 523 0126 28BF     		it	cs
 524 0128 1A46     		movcs	r2, r3
 505:Middlewares/ST/STM32_USB_Device_Library/Core/Src/usbd_ctlreq.c **** 
 525              		.loc 1 505 9 view .LVU157
 526 012a ADF80620 		strh	r2, [sp, #6]	@ movhi
 507:Middlewares/ST/STM32_USB_Device_Library/Core/Src/usbd_ctlreq.c ****   }
 527              		.loc 1 507 5 is_stmt 1 view .LVU158
 528 012e 0146     		mov	r1, r0
 529 0130 2846     		mov	r0, r5
 530              	.LVL60:
 507:Middlewares/ST/STM32_USB_Device_Library/Core/Src/usbd_ctlreq.c ****   }
 531              		.loc 1 507 5 is_stmt 0 view .LVU159
 532 0132 FFF7FEFF 		bl	USBD_CtlSendData
 533              	.LVL61:
 507:Middlewares/ST/STM32_USB_Device_Library/Core/Src/usbd_ctlreq.c ****   }
 534              		.loc 1 507 5 view .LVU160
 535 0136 80E7     		b	.L32
 536              	.L37:
 512:Middlewares/ST/STM32_USB_Device_Library/Core/Src/usbd_ctlreq.c ****   }
 537              		.loc 1 512 4 is_stmt 1 view .LVU161
 538 0138 2846     		mov	r0, r5
 539 013a FFF7FEFF 		bl	USBD_CtlSendStatus
 540              	.LVL62:
 541 013e 7FE7     		b	.L11
 542              		.cfi_endproc
 543              	.LFE136:
 545              		.section	.text.USBD_SetAddress,"ax",%progbits
 546              		.align	1
 547              		.syntax unified
 548              		.thumb
 549              		.thumb_func
 551              	USBD_SetAddress:
 552              	.LVL63:
 553              	.LFB137:
 525:Middlewares/ST/STM32_USB_Device_Library/Core/Src/usbd_ctlreq.c ****   uint8_t  dev_addr;
 554              		.loc 1 525 1 view -0
 555              		.cfi_startproc
 556              		@ args = 0, pretend = 0, frame = 0
 557              		@ frame_needed = 0, uses_anonymous_args = 0
 525:Middlewares/ST/STM32_USB_Device_Library/Core/Src/usbd_ctlreq.c ****   uint8_t  dev_addr;
 558              		.loc 1 525 1 is_stmt 0 view .LVU163
 559 0000 38B5     		push	{r3, r4, r5, lr}
 560              	.LCFI6:
 561              		.cfi_def_cfa_offset 16
 562              		.cfi_offset 3, -16
 563              		.cfi_offset 4, -12
 564              		.cfi_offset 5, -8
 565              		.cfi_offset 14, -4
ARM GAS  /var/folders/jr/lt9tb7vj2871x9rxdxc0hz4h0000gn/T//ccaStH1G.s 			page 28


 566 0002 0446     		mov	r4, r0
 526:Middlewares/ST/STM32_USB_Device_Library/Core/Src/usbd_ctlreq.c **** 
 567              		.loc 1 526 3 is_stmt 1 view .LVU164
 528:Middlewares/ST/STM32_USB_Device_Library/Core/Src/usbd_ctlreq.c ****   {
 568              		.loc 1 528 3 view .LVU165
 528:Middlewares/ST/STM32_USB_Device_Library/Core/Src/usbd_ctlreq.c ****   {
 569              		.loc 1 528 11 is_stmt 0 view .LVU166
 570 0004 8B88     		ldrh	r3, [r1, #4]
 528:Middlewares/ST/STM32_USB_Device_Library/Core/Src/usbd_ctlreq.c ****   {
 571              		.loc 1 528 6 view .LVU167
 572 0006 F3B9     		cbnz	r3, .L39
 528:Middlewares/ST/STM32_USB_Device_Library/Core/Src/usbd_ctlreq.c ****   {
 573              		.loc 1 528 34 discriminator 1 view .LVU168
 574 0008 CB88     		ldrh	r3, [r1, #6]
 528:Middlewares/ST/STM32_USB_Device_Library/Core/Src/usbd_ctlreq.c ****   {
 575              		.loc 1 528 27 discriminator 1 view .LVU169
 576 000a E3B9     		cbnz	r3, .L39
 528:Middlewares/ST/STM32_USB_Device_Library/Core/Src/usbd_ctlreq.c ****   {
 577              		.loc 1 528 58 discriminator 2 view .LVU170
 578 000c 4B88     		ldrh	r3, [r1, #2]
 528:Middlewares/ST/STM32_USB_Device_Library/Core/Src/usbd_ctlreq.c ****   {
 579              		.loc 1 528 51 discriminator 2 view .LVU171
 580 000e 7F2B     		cmp	r3, #127
 581 0010 19D8     		bhi	.L39
 530:Middlewares/ST/STM32_USB_Device_Library/Core/Src/usbd_ctlreq.c **** 
 582              		.loc 1 530 5 is_stmt 1 view .LVU172
 530:Middlewares/ST/STM32_USB_Device_Library/Core/Src/usbd_ctlreq.c **** 
 583              		.loc 1 530 14 is_stmt 0 view .LVU173
 584 0012 03F07F05 		and	r5, r3, #127
 585              	.LVL64:
 532:Middlewares/ST/STM32_USB_Device_Library/Core/Src/usbd_ctlreq.c ****     {
 586              		.loc 1 532 5 is_stmt 1 view .LVU174
 532:Middlewares/ST/STM32_USB_Device_Library/Core/Src/usbd_ctlreq.c ****     {
 587              		.loc 1 532 13 is_stmt 0 view .LVU175
 588 0016 90F87432 		ldrb	r3, [r0, #628]	@ zero_extendqisi2
 532:Middlewares/ST/STM32_USB_Device_Library/Core/Src/usbd_ctlreq.c ****     {
 589              		.loc 1 532 8 view .LVU176
 590 001a 032B     		cmp	r3, #3
 591 001c 0CD0     		beq	.L44
 538:Middlewares/ST/STM32_USB_Device_Library/Core/Src/usbd_ctlreq.c ****       USBD_LL_SetUSBAddress(pdev, dev_addr);
 592              		.loc 1 538 7 is_stmt 1 view .LVU177
 538:Middlewares/ST/STM32_USB_Device_Library/Core/Src/usbd_ctlreq.c ****       USBD_LL_SetUSBAddress(pdev, dev_addr);
 593              		.loc 1 538 25 is_stmt 0 view .LVU178
 594 001e 80F87652 		strb	r5, [r0, #630]
 539:Middlewares/ST/STM32_USB_Device_Library/Core/Src/usbd_ctlreq.c ****       USBD_CtlSendStatus(pdev);
 595              		.loc 1 539 7 is_stmt 1 view .LVU179
 596 0022 2946     		mov	r1, r5
 597              	.LVL65:
 539:Middlewares/ST/STM32_USB_Device_Library/Core/Src/usbd_ctlreq.c ****       USBD_CtlSendStatus(pdev);
 598              		.loc 1 539 7 is_stmt 0 view .LVU180
 599 0024 FFF7FEFF 		bl	USBD_LL_SetUSBAddress
 600              	.LVL66:
 540:Middlewares/ST/STM32_USB_Device_Library/Core/Src/usbd_ctlreq.c **** 
 601              		.loc 1 540 7 is_stmt 1 view .LVU181
 602 0028 2046     		mov	r0, r4
 603 002a FFF7FEFF 		bl	USBD_CtlSendStatus
 604              	.LVL67:
ARM GAS  /var/folders/jr/lt9tb7vj2871x9rxdxc0hz4h0000gn/T//ccaStH1G.s 			page 29


 542:Middlewares/ST/STM32_USB_Device_Library/Core/Src/usbd_ctlreq.c ****       {
 605              		.loc 1 542 7 view .LVU182
 542:Middlewares/ST/STM32_USB_Device_Library/Core/Src/usbd_ctlreq.c ****       {
 606              		.loc 1 542 10 is_stmt 0 view .LVU183
 607 002e 35B1     		cbz	r5, .L42
 544:Middlewares/ST/STM32_USB_Device_Library/Core/Src/usbd_ctlreq.c ****       }
 608              		.loc 1 544 9 is_stmt 1 view .LVU184
 544:Middlewares/ST/STM32_USB_Device_Library/Core/Src/usbd_ctlreq.c ****       }
 609              		.loc 1 544 25 is_stmt 0 view .LVU185
 610 0030 0223     		movs	r3, #2
 611 0032 84F87432 		strb	r3, [r4, #628]
 612 0036 09E0     		b	.L38
 613              	.LVL68:
 614              	.L44:
 534:Middlewares/ST/STM32_USB_Device_Library/Core/Src/usbd_ctlreq.c ****     }
 615              		.loc 1 534 7 is_stmt 1 view .LVU186
 616 0038 FFF7FEFF 		bl	USBD_CtlError
 617              	.LVL69:
 534:Middlewares/ST/STM32_USB_Device_Library/Core/Src/usbd_ctlreq.c ****     }
 618              		.loc 1 534 7 is_stmt 0 view .LVU187
 619 003c 06E0     		b	.L38
 620              	.L42:
 548:Middlewares/ST/STM32_USB_Device_Library/Core/Src/usbd_ctlreq.c ****       }
 621              		.loc 1 548 9 is_stmt 1 view .LVU188
 548:Middlewares/ST/STM32_USB_Device_Library/Core/Src/usbd_ctlreq.c ****       }
 622              		.loc 1 548 25 is_stmt 0 view .LVU189
 623 003e 0123     		movs	r3, #1
 624 0040 84F87432 		strb	r3, [r4, #628]
 625 0044 02E0     		b	.L38
 626              	.LVL70:
 627              	.L39:
 554:Middlewares/ST/STM32_USB_Device_Library/Core/Src/usbd_ctlreq.c ****   }
 628              		.loc 1 554 5 is_stmt 1 view .LVU190
 629 0046 2046     		mov	r0, r4
 630              	.LVL71:
 554:Middlewares/ST/STM32_USB_Device_Library/Core/Src/usbd_ctlreq.c ****   }
 631              		.loc 1 554 5 is_stmt 0 view .LVU191
 632 0048 FFF7FEFF 		bl	USBD_CtlError
 633              	.LVL72:
 634              	.L38:
 556:Middlewares/ST/STM32_USB_Device_Library/Core/Src/usbd_ctlreq.c **** 
 635              		.loc 1 556 1 view .LVU192
 636 004c 38BD     		pop	{r3, r4, r5, pc}
 556:Middlewares/ST/STM32_USB_Device_Library/Core/Src/usbd_ctlreq.c **** 
 637              		.loc 1 556 1 view .LVU193
 638              		.cfi_endproc
 639              	.LFE137:
 641              		.section	.text.USBD_SetConfig,"ax",%progbits
 642              		.align	1
 643              		.syntax unified
 644              		.thumb
 645              		.thumb_func
 647              	USBD_SetConfig:
 648              	.LVL73:
 649              	.LFB138:
 566:Middlewares/ST/STM32_USB_Device_Library/Core/Src/usbd_ctlreq.c ****   static uint8_t cfgidx;
 650              		.loc 1 566 1 is_stmt 1 view -0
ARM GAS  /var/folders/jr/lt9tb7vj2871x9rxdxc0hz4h0000gn/T//ccaStH1G.s 			page 30


 651              		.cfi_startproc
 652              		@ args = 0, pretend = 0, frame = 0
 653              		@ frame_needed = 0, uses_anonymous_args = 0
 566:Middlewares/ST/STM32_USB_Device_Library/Core/Src/usbd_ctlreq.c ****   static uint8_t cfgidx;
 654              		.loc 1 566 1 is_stmt 0 view .LVU195
 655 0000 38B5     		push	{r3, r4, r5, lr}
 656              	.LCFI7:
 657              		.cfi_def_cfa_offset 16
 658              		.cfi_offset 3, -16
 659              		.cfi_offset 4, -12
 660              		.cfi_offset 5, -8
 661              		.cfi_offset 14, -4
 662 0002 0446     		mov	r4, r0
 663 0004 0D46     		mov	r5, r1
 567:Middlewares/ST/STM32_USB_Device_Library/Core/Src/usbd_ctlreq.c **** 
 664              		.loc 1 567 3 is_stmt 1 view .LVU196
 569:Middlewares/ST/STM32_USB_Device_Library/Core/Src/usbd_ctlreq.c **** 
 665              		.loc 1 569 3 view .LVU197
 569:Middlewares/ST/STM32_USB_Device_Library/Core/Src/usbd_ctlreq.c **** 
 666              		.loc 1 569 12 is_stmt 0 view .LVU198
 667 0006 8978     		ldrb	r1, [r1, #2]	@ zero_extendqisi2
 668              	.LVL74:
 569:Middlewares/ST/STM32_USB_Device_Library/Core/Src/usbd_ctlreq.c **** 
 669              		.loc 1 569 10 view .LVU199
 670 0008 284B     		ldr	r3, .L62
 671 000a 1970     		strb	r1, [r3]
 571:Middlewares/ST/STM32_USB_Device_Library/Core/Src/usbd_ctlreq.c ****   {
 672              		.loc 1 571 3 is_stmt 1 view .LVU200
 571:Middlewares/ST/STM32_USB_Device_Library/Core/Src/usbd_ctlreq.c ****   {
 673              		.loc 1 571 6 is_stmt 0 view .LVU201
 674 000c 0129     		cmp	r1, #1
 675 000e 0ED8     		bhi	.L58
 577:Middlewares/ST/STM32_USB_Device_Library/Core/Src/usbd_ctlreq.c ****     {
 676              		.loc 1 577 5 is_stmt 1 view .LVU202
 577:Middlewares/ST/STM32_USB_Device_Library/Core/Src/usbd_ctlreq.c ****     {
 677              		.loc 1 577 17 is_stmt 0 view .LVU203
 678 0010 90F87432 		ldrb	r3, [r0, #628]	@ zero_extendqisi2
 577:Middlewares/ST/STM32_USB_Device_Library/Core/Src/usbd_ctlreq.c ****     {
 679              		.loc 1 577 5 view .LVU204
 680 0014 022B     		cmp	r3, #2
 681 0016 0ED0     		beq	.L48
 682 0018 032B     		cmp	r3, #3
 683 001a 21D0     		beq	.L49
 626:Middlewares/ST/STM32_USB_Device_Library/Core/Src/usbd_ctlreq.c ****       USBD_ClrClassConfig(pdev, cfgidx);
 684              		.loc 1 626 7 is_stmt 1 view .LVU205
 685 001c 2946     		mov	r1, r5
 686 001e FFF7FEFF 		bl	USBD_CtlError
 687              	.LVL75:
 627:Middlewares/ST/STM32_USB_Device_Library/Core/Src/usbd_ctlreq.c ****       break;
 688              		.loc 1 627 7 view .LVU206
 689 0022 224B     		ldr	r3, .L62
 690 0024 1978     		ldrb	r1, [r3]	@ zero_extendqisi2
 691 0026 2046     		mov	r0, r4
 692 0028 FFF7FEFF 		bl	USBD_ClrClassConfig
 693              	.LVL76:
 628:Middlewares/ST/STM32_USB_Device_Library/Core/Src/usbd_ctlreq.c ****     }
 694              		.loc 1 628 7 view .LVU207
ARM GAS  /var/folders/jr/lt9tb7vj2871x9rxdxc0hz4h0000gn/T//ccaStH1G.s 			page 31


 695 002c 02E0     		b	.L45
 696              	.LVL77:
 697              	.L58:
 573:Middlewares/ST/STM32_USB_Device_Library/Core/Src/usbd_ctlreq.c ****   }
 698              		.loc 1 573 5 view .LVU208
 699 002e 2946     		mov	r1, r5
 700 0030 FFF7FEFF 		bl	USBD_CtlError
 701              	.LVL78:
 702              	.L45:
 631:Middlewares/ST/STM32_USB_Device_Library/Core/Src/usbd_ctlreq.c **** 
 703              		.loc 1 631 1 is_stmt 0 view .LVU209
 704 0034 38BD     		pop	{r3, r4, r5, pc}
 705              	.LVL79:
 706              	.L48:
 580:Middlewares/ST/STM32_USB_Device_Library/Core/Src/usbd_ctlreq.c ****       {
 707              		.loc 1 580 7 is_stmt 1 view .LVU210
 580:Middlewares/ST/STM32_USB_Device_Library/Core/Src/usbd_ctlreq.c ****       {
 708              		.loc 1 580 10 is_stmt 0 view .LVU211
 709 0036 81B1     		cbz	r1, .L51
 582:Middlewares/ST/STM32_USB_Device_Library/Core/Src/usbd_ctlreq.c ****         pdev->dev_state = USBD_STATE_CONFIGURED;
 710              		.loc 1 582 9 is_stmt 1 view .LVU212
 582:Middlewares/ST/STM32_USB_Device_Library/Core/Src/usbd_ctlreq.c ****         pdev->dev_state = USBD_STATE_CONFIGURED;
 711              		.loc 1 582 26 is_stmt 0 view .LVU213
 712 0038 4160     		str	r1, [r0, #4]
 583:Middlewares/ST/STM32_USB_Device_Library/Core/Src/usbd_ctlreq.c ****         if(USBD_SetClassConfig(pdev, cfgidx) == USBD_FAIL)
 713              		.loc 1 583 9 is_stmt 1 view .LVU214
 583:Middlewares/ST/STM32_USB_Device_Library/Core/Src/usbd_ctlreq.c ****         if(USBD_SetClassConfig(pdev, cfgidx) == USBD_FAIL)
 714              		.loc 1 583 25 is_stmt 0 view .LVU215
 715 003a 0323     		movs	r3, #3
 716 003c 80F87432 		strb	r3, [r0, #628]
 584:Middlewares/ST/STM32_USB_Device_Library/Core/Src/usbd_ctlreq.c ****         {
 717              		.loc 1 584 9 is_stmt 1 view .LVU216
 584:Middlewares/ST/STM32_USB_Device_Library/Core/Src/usbd_ctlreq.c ****         {
 718              		.loc 1 584 12 is_stmt 0 view .LVU217
 719 0040 FFF7FEFF 		bl	USBD_SetClassConfig
 720              	.LVL80:
 584:Middlewares/ST/STM32_USB_Device_Library/Core/Src/usbd_ctlreq.c ****         {
 721              		.loc 1 584 11 view .LVU218
 722 0044 0228     		cmp	r0, #2
 723 0046 03D0     		beq	.L59
 589:Middlewares/ST/STM32_USB_Device_Library/Core/Src/usbd_ctlreq.c ****       }
 724              		.loc 1 589 9 is_stmt 1 view .LVU219
 725 0048 2046     		mov	r0, r4
 726 004a FFF7FEFF 		bl	USBD_CtlSendStatus
 727              	.LVL81:
 728 004e F1E7     		b	.L45
 729              	.L59:
 586:Middlewares/ST/STM32_USB_Device_Library/Core/Src/usbd_ctlreq.c ****           return;
 730              		.loc 1 586 11 view .LVU220
 731 0050 2946     		mov	r1, r5
 732 0052 2046     		mov	r0, r4
 733 0054 FFF7FEFF 		bl	USBD_CtlError
 734              	.LVL82:
 587:Middlewares/ST/STM32_USB_Device_Library/Core/Src/usbd_ctlreq.c ****         }
 735              		.loc 1 587 11 view .LVU221
 736 0058 ECE7     		b	.L45
 737              	.LVL83:
ARM GAS  /var/folders/jr/lt9tb7vj2871x9rxdxc0hz4h0000gn/T//ccaStH1G.s 			page 32


 738              	.L51:
 593:Middlewares/ST/STM32_USB_Device_Library/Core/Src/usbd_ctlreq.c ****       }
 739              		.loc 1 593 9 view .LVU222
 740 005a FFF7FEFF 		bl	USBD_CtlSendStatus
 741              	.LVL84:
 593:Middlewares/ST/STM32_USB_Device_Library/Core/Src/usbd_ctlreq.c ****       }
 742              		.loc 1 593 9 is_stmt 0 view .LVU223
 743 005e E9E7     		b	.L45
 744              	.LVL85:
 745              	.L49:
 598:Middlewares/ST/STM32_USB_Device_Library/Core/Src/usbd_ctlreq.c ****       {
 746              		.loc 1 598 7 is_stmt 1 view .LVU224
 598:Middlewares/ST/STM32_USB_Device_Library/Core/Src/usbd_ctlreq.c ****       {
 747              		.loc 1 598 10 is_stmt 0 view .LVU225
 748 0060 89B1     		cbz	r1, .L60
 605:Middlewares/ST/STM32_USB_Device_Library/Core/Src/usbd_ctlreq.c ****       {
 749              		.loc 1 605 12 is_stmt 1 view .LVU226
 605:Middlewares/ST/STM32_USB_Device_Library/Core/Src/usbd_ctlreq.c ****       {
 750              		.loc 1 605 30 is_stmt 0 view .LVU227
 751 0062 4368     		ldr	r3, [r0, #4]
 605:Middlewares/ST/STM32_USB_Device_Library/Core/Src/usbd_ctlreq.c ****       {
 752              		.loc 1 605 15 view .LVU228
 753 0064 9942     		cmp	r1, r3
 754 0066 1DD0     		beq	.L54
 608:Middlewares/ST/STM32_USB_Device_Library/Core/Src/usbd_ctlreq.c **** 
 755              		.loc 1 608 9 is_stmt 1 view .LVU229
 756 0068 D9B2     		uxtb	r1, r3
 757 006a FFF7FEFF 		bl	USBD_ClrClassConfig
 758              	.LVL86:
 611:Middlewares/ST/STM32_USB_Device_Library/Core/Src/usbd_ctlreq.c ****         if(USBD_SetClassConfig(pdev, cfgidx) == USBD_FAIL)
 759              		.loc 1 611 9 view .LVU230
 611:Middlewares/ST/STM32_USB_Device_Library/Core/Src/usbd_ctlreq.c ****         if(USBD_SetClassConfig(pdev, cfgidx) == USBD_FAIL)
 760              		.loc 1 611 26 is_stmt 0 view .LVU231
 761 006e 0F4B     		ldr	r3, .L62
 762 0070 1978     		ldrb	r1, [r3]	@ zero_extendqisi2
 763 0072 6160     		str	r1, [r4, #4]
 612:Middlewares/ST/STM32_USB_Device_Library/Core/Src/usbd_ctlreq.c ****         {
 764              		.loc 1 612 9 is_stmt 1 view .LVU232
 612:Middlewares/ST/STM32_USB_Device_Library/Core/Src/usbd_ctlreq.c ****         {
 765              		.loc 1 612 12 is_stmt 0 view .LVU233
 766 0074 2046     		mov	r0, r4
 767 0076 FFF7FEFF 		bl	USBD_SetClassConfig
 768              	.LVL87:
 612:Middlewares/ST/STM32_USB_Device_Library/Core/Src/usbd_ctlreq.c ****         {
 769              		.loc 1 612 11 view .LVU234
 770 007a 0228     		cmp	r0, #2
 771 007c 0DD0     		beq	.L61
 617:Middlewares/ST/STM32_USB_Device_Library/Core/Src/usbd_ctlreq.c ****       }
 772              		.loc 1 617 9 is_stmt 1 view .LVU235
 773 007e 2046     		mov	r0, r4
 774 0080 FFF7FEFF 		bl	USBD_CtlSendStatus
 775              	.LVL88:
 776 0084 D6E7     		b	.L45
 777              	.LVL89:
 778              	.L60:
 600:Middlewares/ST/STM32_USB_Device_Library/Core/Src/usbd_ctlreq.c ****         pdev->dev_config = cfgidx;
 779              		.loc 1 600 9 view .LVU236
ARM GAS  /var/folders/jr/lt9tb7vj2871x9rxdxc0hz4h0000gn/T//ccaStH1G.s 			page 33


 600:Middlewares/ST/STM32_USB_Device_Library/Core/Src/usbd_ctlreq.c ****         pdev->dev_config = cfgidx;
 780              		.loc 1 600 25 is_stmt 0 view .LVU237
 781 0086 0223     		movs	r3, #2
 782 0088 80F87432 		strb	r3, [r0, #628]
 601:Middlewares/ST/STM32_USB_Device_Library/Core/Src/usbd_ctlreq.c ****         USBD_ClrClassConfig(pdev, cfgidx);
 783              		.loc 1 601 9 is_stmt 1 view .LVU238
 601:Middlewares/ST/STM32_USB_Device_Library/Core/Src/usbd_ctlreq.c ****         USBD_ClrClassConfig(pdev, cfgidx);
 784              		.loc 1 601 26 is_stmt 0 view .LVU239
 785 008c 4160     		str	r1, [r0, #4]
 602:Middlewares/ST/STM32_USB_Device_Library/Core/Src/usbd_ctlreq.c ****         USBD_CtlSendStatus(pdev);
 786              		.loc 1 602 9 is_stmt 1 view .LVU240
 787 008e FFF7FEFF 		bl	USBD_ClrClassConfig
 788              	.LVL90:
 603:Middlewares/ST/STM32_USB_Device_Library/Core/Src/usbd_ctlreq.c ****       }
 789              		.loc 1 603 9 view .LVU241
 790 0092 2046     		mov	r0, r4
 791 0094 FFF7FEFF 		bl	USBD_CtlSendStatus
 792              	.LVL91:
 793 0098 CCE7     		b	.L45
 794              	.L61:
 614:Middlewares/ST/STM32_USB_Device_Library/Core/Src/usbd_ctlreq.c ****           return;
 795              		.loc 1 614 11 view .LVU242
 796 009a 2946     		mov	r1, r5
 797 009c 2046     		mov	r0, r4
 798 009e FFF7FEFF 		bl	USBD_CtlError
 799              	.LVL92:
 615:Middlewares/ST/STM32_USB_Device_Library/Core/Src/usbd_ctlreq.c ****         }
 800              		.loc 1 615 11 view .LVU243
 801 00a2 C7E7     		b	.L45
 802              	.LVL93:
 803              	.L54:
 621:Middlewares/ST/STM32_USB_Device_Library/Core/Src/usbd_ctlreq.c ****       }
 804              		.loc 1 621 9 view .LVU244
 805 00a4 FFF7FEFF 		bl	USBD_CtlSendStatus
 806              	.LVL94:
 621:Middlewares/ST/STM32_USB_Device_Library/Core/Src/usbd_ctlreq.c ****       }
 807              		.loc 1 621 9 is_stmt 0 view .LVU245
 808 00a8 C4E7     		b	.L45
 809              	.L63:
 810 00aa 00BF     		.align	2
 811              	.L62:
 812 00ac 00000000 		.word	.LANCHOR0
 813              		.cfi_endproc
 814              	.LFE138:
 816              		.section	.text.USBD_GetConfig,"ax",%progbits
 817              		.align	1
 818              		.syntax unified
 819              		.thumb
 820              		.thumb_func
 822              	USBD_GetConfig:
 823              	.LVL95:
 824              	.LFB139:
 641:Middlewares/ST/STM32_USB_Device_Library/Core/Src/usbd_ctlreq.c ****   if (req->wLength != 1U)
 825              		.loc 1 641 1 is_stmt 1 view -0
 826              		.cfi_startproc
 827              		@ args = 0, pretend = 0, frame = 0
 828              		@ frame_needed = 0, uses_anonymous_args = 0
ARM GAS  /var/folders/jr/lt9tb7vj2871x9rxdxc0hz4h0000gn/T//ccaStH1G.s 			page 34


 641:Middlewares/ST/STM32_USB_Device_Library/Core/Src/usbd_ctlreq.c ****   if (req->wLength != 1U)
 829              		.loc 1 641 1 is_stmt 0 view .LVU247
 830 0000 08B5     		push	{r3, lr}
 831              	.LCFI8:
 832              		.cfi_def_cfa_offset 8
 833              		.cfi_offset 3, -8
 834              		.cfi_offset 14, -4
 642:Middlewares/ST/STM32_USB_Device_Library/Core/Src/usbd_ctlreq.c ****   {
 835              		.loc 1 642 3 is_stmt 1 view .LVU248
 642:Middlewares/ST/STM32_USB_Device_Library/Core/Src/usbd_ctlreq.c ****   {
 836              		.loc 1 642 10 is_stmt 0 view .LVU249
 837 0002 CB88     		ldrh	r3, [r1, #6]
 642:Middlewares/ST/STM32_USB_Device_Library/Core/Src/usbd_ctlreq.c ****   {
 838              		.loc 1 642 6 view .LVU250
 839 0004 012B     		cmp	r3, #1
 840 0006 0AD1     		bne	.L72
 648:Middlewares/ST/STM32_USB_Device_Library/Core/Src/usbd_ctlreq.c ****     {
 841              		.loc 1 648 5 is_stmt 1 view .LVU251
 648:Middlewares/ST/STM32_USB_Device_Library/Core/Src/usbd_ctlreq.c ****     {
 842              		.loc 1 648 17 is_stmt 0 view .LVU252
 843 0008 90F87432 		ldrb	r3, [r0, #628]	@ zero_extendqisi2
 648:Middlewares/ST/STM32_USB_Device_Library/Core/Src/usbd_ctlreq.c ****     {
 844              		.loc 1 648 5 view .LVU253
 845 000c 022B     		cmp	r3, #2
 846 000e 09D9     		bls	.L73
 847 0010 032B     		cmp	r3, #3
 848 0012 09D1     		bne	.L69
 657:Middlewares/ST/STM32_USB_Device_Library/Core/Src/usbd_ctlreq.c ****       break;
 849              		.loc 1 657 7 is_stmt 1 view .LVU254
 850 0014 0122     		movs	r2, #1
 851 0016 011D     		adds	r1, r0, #4
 852              	.LVL96:
 657:Middlewares/ST/STM32_USB_Device_Library/Core/Src/usbd_ctlreq.c ****       break;
 853              		.loc 1 657 7 is_stmt 0 view .LVU255
 854 0018 FFF7FEFF 		bl	USBD_CtlSendData
 855              	.LVL97:
 658:Middlewares/ST/STM32_USB_Device_Library/Core/Src/usbd_ctlreq.c **** 
 856              		.loc 1 658 7 is_stmt 1 view .LVU256
 857 001c 01E0     		b	.L64
 858              	.LVL98:
 859              	.L72:
 644:Middlewares/ST/STM32_USB_Device_Library/Core/Src/usbd_ctlreq.c ****   }
 860              		.loc 1 644 5 view .LVU257
 861 001e FFF7FEFF 		bl	USBD_CtlError
 862              	.LVL99:
 863              	.L64:
 665:Middlewares/ST/STM32_USB_Device_Library/Core/Src/usbd_ctlreq.c **** 
 864              		.loc 1 665 1 is_stmt 0 view .LVU258
 865 0022 08BD     		pop	{r3, pc}
 866              	.LVL100:
 867              	.L73:
 648:Middlewares/ST/STM32_USB_Device_Library/Core/Src/usbd_ctlreq.c ****     {
 868              		.loc 1 648 5 view .LVU259
 869 0024 5BB2     		sxtb	r3, r3
 870 0026 13B9     		cbnz	r3, .L74
 871              	.L69:
 661:Middlewares/ST/STM32_USB_Device_Library/Core/Src/usbd_ctlreq.c ****       break;
ARM GAS  /var/folders/jr/lt9tb7vj2871x9rxdxc0hz4h0000gn/T//ccaStH1G.s 			page 35


 872              		.loc 1 661 7 is_stmt 1 view .LVU260
 873 0028 FFF7FEFF 		bl	USBD_CtlError
 874              	.LVL101:
 662:Middlewares/ST/STM32_USB_Device_Library/Core/Src/usbd_ctlreq.c ****     }
 875              		.loc 1 662 7 view .LVU261
 665:Middlewares/ST/STM32_USB_Device_Library/Core/Src/usbd_ctlreq.c **** 
 876              		.loc 1 665 1 is_stmt 0 view .LVU262
 877 002c F9E7     		b	.L64
 878              	.LVL102:
 879              	.L74:
 652:Middlewares/ST/STM32_USB_Device_Library/Core/Src/usbd_ctlreq.c ****       USBD_CtlSendData (pdev, (uint8_t *)(void *)&pdev->dev_default_config, 1U);
 880              		.loc 1 652 7 is_stmt 1 view .LVU263
 652:Middlewares/ST/STM32_USB_Device_Library/Core/Src/usbd_ctlreq.c ****       USBD_CtlSendData (pdev, (uint8_t *)(void *)&pdev->dev_default_config, 1U);
 881              		.loc 1 652 32 is_stmt 0 view .LVU264
 882 002e 0146     		mov	r1, r0
 883              	.LVL103:
 652:Middlewares/ST/STM32_USB_Device_Library/Core/Src/usbd_ctlreq.c ****       USBD_CtlSendData (pdev, (uint8_t *)(void *)&pdev->dev_default_config, 1U);
 884              		.loc 1 652 32 view .LVU265
 885 0030 0023     		movs	r3, #0
 886 0032 41F8083F 		str	r3, [r1, #8]!
 653:Middlewares/ST/STM32_USB_Device_Library/Core/Src/usbd_ctlreq.c ****       break;
 887              		.loc 1 653 7 is_stmt 1 view .LVU266
 888 0036 0122     		movs	r2, #1
 889 0038 FFF7FEFF 		bl	USBD_CtlSendData
 890              	.LVL104:
 654:Middlewares/ST/STM32_USB_Device_Library/Core/Src/usbd_ctlreq.c **** 
 891              		.loc 1 654 7 view .LVU267
 892 003c F1E7     		b	.L64
 893              		.cfi_endproc
 894              	.LFE139:
 896              		.section	.text.USBD_GetStatus,"ax",%progbits
 897              		.align	1
 898              		.syntax unified
 899              		.thumb
 900              		.thumb_func
 902              	USBD_GetStatus:
 903              	.LVL105:
 904              	.LFB140:
 675:Middlewares/ST/STM32_USB_Device_Library/Core/Src/usbd_ctlreq.c ****   switch (pdev->dev_state)
 905              		.loc 1 675 1 view -0
 906              		.cfi_startproc
 907              		@ args = 0, pretend = 0, frame = 0
 908              		@ frame_needed = 0, uses_anonymous_args = 0
 675:Middlewares/ST/STM32_USB_Device_Library/Core/Src/usbd_ctlreq.c ****   switch (pdev->dev_state)
 909              		.loc 1 675 1 is_stmt 0 view .LVU269
 910 0000 08B5     		push	{r3, lr}
 911              	.LCFI9:
 912              		.cfi_def_cfa_offset 8
 913              		.cfi_offset 3, -8
 914              		.cfi_offset 14, -4
 676:Middlewares/ST/STM32_USB_Device_Library/Core/Src/usbd_ctlreq.c ****   {
 915              		.loc 1 676 3 is_stmt 1 view .LVU270
 676:Middlewares/ST/STM32_USB_Device_Library/Core/Src/usbd_ctlreq.c ****   {
 916              		.loc 1 676 15 is_stmt 0 view .LVU271
 917 0002 90F87432 		ldrb	r3, [r0, #628]	@ zero_extendqisi2
 676:Middlewares/ST/STM32_USB_Device_Library/Core/Src/usbd_ctlreq.c ****   {
 918              		.loc 1 676 3 view .LVU272
ARM GAS  /var/folders/jr/lt9tb7vj2871x9rxdxc0hz4h0000gn/T//ccaStH1G.s 			page 36


 919 0006 013B     		subs	r3, r3, #1
 920 0008 022B     		cmp	r3, #2
 921 000a 12D8     		bhi	.L76
 681:Middlewares/ST/STM32_USB_Device_Library/Core/Src/usbd_ctlreq.c ****     {
 922              		.loc 1 681 5 is_stmt 1 view .LVU273
 681:Middlewares/ST/STM32_USB_Device_Library/Core/Src/usbd_ctlreq.c ****     {
 923              		.loc 1 681 11 is_stmt 0 view .LVU274
 924 000c CB88     		ldrh	r3, [r1, #6]
 681:Middlewares/ST/STM32_USB_Device_Library/Core/Src/usbd_ctlreq.c ****     {
 925              		.loc 1 681 7 view .LVU275
 926 000e 022B     		cmp	r3, #2
 927 0010 0CD1     		bne	.L81
 688:Middlewares/ST/STM32_USB_Device_Library/Core/Src/usbd_ctlreq.c **** #else
 928              		.loc 1 688 5 is_stmt 1 view .LVU276
 688:Middlewares/ST/STM32_USB_Device_Library/Core/Src/usbd_ctlreq.c **** #else
 929              		.loc 1 688 29 is_stmt 0 view .LVU277
 930 0012 0123     		movs	r3, #1
 931 0014 C360     		str	r3, [r0, #12]
 693:Middlewares/ST/STM32_USB_Device_Library/Core/Src/usbd_ctlreq.c ****     {
 932              		.loc 1 693 5 is_stmt 1 view .LVU278
 693:Middlewares/ST/STM32_USB_Device_Library/Core/Src/usbd_ctlreq.c ****     {
 933              		.loc 1 693 13 is_stmt 0 view .LVU279
 934 0016 D0F87C32 		ldr	r3, [r0, #636]
 693:Middlewares/ST/STM32_USB_Device_Library/Core/Src/usbd_ctlreq.c ****     {
 935              		.loc 1 693 8 view .LVU280
 936 001a 0BB1     		cbz	r3, .L79
 695:Middlewares/ST/STM32_USB_Device_Library/Core/Src/usbd_ctlreq.c ****     }
 937              		.loc 1 695 7 is_stmt 1 view .LVU281
 695:Middlewares/ST/STM32_USB_Device_Library/Core/Src/usbd_ctlreq.c ****     }
 938              		.loc 1 695 31 is_stmt 0 view .LVU282
 939 001c 0323     		movs	r3, #3
 940 001e C360     		str	r3, [r0, #12]
 941              	.L79:
 698:Middlewares/ST/STM32_USB_Device_Library/Core/Src/usbd_ctlreq.c ****     break;
 942              		.loc 1 698 5 is_stmt 1 view .LVU283
 943 0020 0222     		movs	r2, #2
 944 0022 00F10C01 		add	r1, r0, #12
 945              	.LVL106:
 698:Middlewares/ST/STM32_USB_Device_Library/Core/Src/usbd_ctlreq.c ****     break;
 946              		.loc 1 698 5 is_stmt 0 view .LVU284
 947 0026 FFF7FEFF 		bl	USBD_CtlSendData
 948              	.LVL107:
 699:Middlewares/ST/STM32_USB_Device_Library/Core/Src/usbd_ctlreq.c **** 
 949              		.loc 1 699 5 is_stmt 1 view .LVU285
 950              	.L75:
 705:Middlewares/ST/STM32_USB_Device_Library/Core/Src/usbd_ctlreq.c **** 
 951              		.loc 1 705 1 is_stmt 0 view .LVU286
 952 002a 08BD     		pop	{r3, pc}
 953              	.LVL108:
 954              	.L81:
 683:Middlewares/ST/STM32_USB_Device_Library/Core/Src/usbd_ctlreq.c ****       break;
 955              		.loc 1 683 7 is_stmt 1 view .LVU287
 956 002c FFF7FEFF 		bl	USBD_CtlError
 957              	.LVL109:
 684:Middlewares/ST/STM32_USB_Device_Library/Core/Src/usbd_ctlreq.c ****     }
 958              		.loc 1 684 7 view .LVU288
 959 0030 FBE7     		b	.L75
ARM GAS  /var/folders/jr/lt9tb7vj2871x9rxdxc0hz4h0000gn/T//ccaStH1G.s 			page 37


 960              	.LVL110:
 961              	.L76:
 702:Middlewares/ST/STM32_USB_Device_Library/Core/Src/usbd_ctlreq.c ****     break;
 962              		.loc 1 702 5 view .LVU289
 963 0032 FFF7FEFF 		bl	USBD_CtlError
 964              	.LVL111:
 703:Middlewares/ST/STM32_USB_Device_Library/Core/Src/usbd_ctlreq.c ****   }
 965              		.loc 1 703 5 view .LVU290
 705:Middlewares/ST/STM32_USB_Device_Library/Core/Src/usbd_ctlreq.c **** 
 966              		.loc 1 705 1 is_stmt 0 view .LVU291
 967 0036 F8E7     		b	.L75
 968              		.cfi_endproc
 969              	.LFE140:
 971              		.section	.text.USBD_ClrFeature,"ax",%progbits
 972              		.align	1
 973              		.syntax unified
 974              		.thumb
 975              		.thumb_func
 977              	USBD_ClrFeature:
 978              	.LVL112:
 979              	.LFB142:
 737:Middlewares/ST/STM32_USB_Device_Library/Core/Src/usbd_ctlreq.c ****   switch (pdev->dev_state)
 980              		.loc 1 737 1 is_stmt 1 view -0
 981              		.cfi_startproc
 982              		@ args = 0, pretend = 0, frame = 0
 983              		@ frame_needed = 0, uses_anonymous_args = 0
 737:Middlewares/ST/STM32_USB_Device_Library/Core/Src/usbd_ctlreq.c ****   switch (pdev->dev_state)
 984              		.loc 1 737 1 is_stmt 0 view .LVU293
 985 0000 08B5     		push	{r3, lr}
 986              	.LCFI10:
 987              		.cfi_def_cfa_offset 8
 988              		.cfi_offset 3, -8
 989              		.cfi_offset 14, -4
 738:Middlewares/ST/STM32_USB_Device_Library/Core/Src/usbd_ctlreq.c ****   {
 990              		.loc 1 738 3 is_stmt 1 view .LVU294
 738:Middlewares/ST/STM32_USB_Device_Library/Core/Src/usbd_ctlreq.c ****   {
 991              		.loc 1 738 15 is_stmt 0 view .LVU295
 992 0002 90F87432 		ldrb	r3, [r0, #628]	@ zero_extendqisi2
 738:Middlewares/ST/STM32_USB_Device_Library/Core/Src/usbd_ctlreq.c ****   {
 993              		.loc 1 738 3 view .LVU296
 994 0006 013B     		subs	r3, r3, #1
 995 0008 022B     		cmp	r3, #2
 996 000a 09D8     		bhi	.L83
 743:Middlewares/ST/STM32_USB_Device_Library/Core/Src/usbd_ctlreq.c ****     {
 997              		.loc 1 743 5 is_stmt 1 view .LVU297
 743:Middlewares/ST/STM32_USB_Device_Library/Core/Src/usbd_ctlreq.c ****     {
 998              		.loc 1 743 12 is_stmt 0 view .LVU298
 999 000c 4B88     		ldrh	r3, [r1, #2]
 743:Middlewares/ST/STM32_USB_Device_Library/Core/Src/usbd_ctlreq.c ****     {
 1000              		.loc 1 743 8 view .LVU299
 1001 000e 012B     		cmp	r3, #1
 1002 0010 00D0     		beq	.L86
 1003              	.LVL113:
 1004              	.L82:
 754:Middlewares/ST/STM32_USB_Device_Library/Core/Src/usbd_ctlreq.c **** 
 1005              		.loc 1 754 1 view .LVU300
 1006 0012 08BD     		pop	{r3, pc}
ARM GAS  /var/folders/jr/lt9tb7vj2871x9rxdxc0hz4h0000gn/T//ccaStH1G.s 			page 38


 1007              	.LVL114:
 1008              	.L86:
 745:Middlewares/ST/STM32_USB_Device_Library/Core/Src/usbd_ctlreq.c ****       USBD_CtlSendStatus(pdev);
 1009              		.loc 1 745 7 is_stmt 1 view .LVU301
 745:Middlewares/ST/STM32_USB_Device_Library/Core/Src/usbd_ctlreq.c ****       USBD_CtlSendStatus(pdev);
 1010              		.loc 1 745 31 is_stmt 0 view .LVU302
 1011 0014 0023     		movs	r3, #0
 1012 0016 C0F87C32 		str	r3, [r0, #636]
 746:Middlewares/ST/STM32_USB_Device_Library/Core/Src/usbd_ctlreq.c ****     }
 1013              		.loc 1 746 7 is_stmt 1 view .LVU303
 1014 001a FFF7FEFF 		bl	USBD_CtlSendStatus
 1015              	.LVL115:
 746:Middlewares/ST/STM32_USB_Device_Library/Core/Src/usbd_ctlreq.c ****     }
 1016              		.loc 1 746 7 is_stmt 0 view .LVU304
 1017 001e F8E7     		b	.L82
 1018              	.LVL116:
 1019              	.L83:
 751:Middlewares/ST/STM32_USB_Device_Library/Core/Src/usbd_ctlreq.c ****     break;
 1020              		.loc 1 751 6 is_stmt 1 view .LVU305
 1021 0020 FFF7FEFF 		bl	USBD_CtlError
 1022              	.LVL117:
 752:Middlewares/ST/STM32_USB_Device_Library/Core/Src/usbd_ctlreq.c ****   }
 1023              		.loc 1 752 5 view .LVU306
 754:Middlewares/ST/STM32_USB_Device_Library/Core/Src/usbd_ctlreq.c **** 
 1024              		.loc 1 754 1 is_stmt 0 view .LVU307
 1025 0024 F5E7     		b	.L82
 1026              		.cfi_endproc
 1027              	.LFE142:
 1029              		.section	.text.USBD_StdDevReq,"ax",%progbits
 1030              		.align	1
 1031              		.global	USBD_StdDevReq
 1032              		.syntax unified
 1033              		.thumb
 1034              		.thumb_func
 1036              	USBD_StdDevReq:
 1037              	.LVL118:
 1038              	.LFB133:
 112:Middlewares/ST/STM32_USB_Device_Library/Core/Src/usbd_ctlreq.c ****   USBD_StatusTypeDef ret = USBD_OK;
 1039              		.loc 1 112 1 is_stmt 1 view -0
 1040              		.cfi_startproc
 1041              		@ args = 0, pretend = 0, frame = 0
 1042              		@ frame_needed = 0, uses_anonymous_args = 0
 112:Middlewares/ST/STM32_USB_Device_Library/Core/Src/usbd_ctlreq.c ****   USBD_StatusTypeDef ret = USBD_OK;
 1043              		.loc 1 112 1 is_stmt 0 view .LVU309
 1044 0000 08B5     		push	{r3, lr}
 1045              	.LCFI11:
 1046              		.cfi_def_cfa_offset 8
 1047              		.cfi_offset 3, -8
 1048              		.cfi_offset 14, -4
 113:Middlewares/ST/STM32_USB_Device_Library/Core/Src/usbd_ctlreq.c **** 
 1049              		.loc 1 113 3 is_stmt 1 view .LVU310
 1050              	.LVL119:
 115:Middlewares/ST/STM32_USB_Device_Library/Core/Src/usbd_ctlreq.c ****   {
 1051              		.loc 1 115 3 view .LVU311
 115:Middlewares/ST/STM32_USB_Device_Library/Core/Src/usbd_ctlreq.c ****   {
 1052              		.loc 1 115 14 is_stmt 0 view .LVU312
 1053 0002 0B78     		ldrb	r3, [r1]	@ zero_extendqisi2
ARM GAS  /var/folders/jr/lt9tb7vj2871x9rxdxc0hz4h0000gn/T//ccaStH1G.s 			page 39


 1054 0004 03F06003 		and	r3, r3, #96
 115:Middlewares/ST/STM32_USB_Device_Library/Core/Src/usbd_ctlreq.c ****   {
 1055              		.loc 1 115 3 view .LVU313
 1056 0008 202B     		cmp	r3, #32
 1057 000a 05D0     		beq	.L88
 1058 000c 402B     		cmp	r3, #64
 1059 000e 03D0     		beq	.L88
 1060 0010 43B1     		cbz	r3, .L103
 163:Middlewares/ST/STM32_USB_Device_Library/Core/Src/usbd_ctlreq.c ****     break;
 1061              		.loc 1 163 5 is_stmt 1 view .LVU314
 1062 0012 FFF7FEFF 		bl	USBD_CtlError
 1063              	.LVL120:
 164:Middlewares/ST/STM32_USB_Device_Library/Core/Src/usbd_ctlreq.c ****   }
 1064              		.loc 1 164 5 view .LVU315
 1065 0016 03E0     		b	.L91
 1066              	.LVL121:
 1067              	.L88:
 119:Middlewares/ST/STM32_USB_Device_Library/Core/Src/usbd_ctlreq.c ****     break;
 1068              		.loc 1 119 5 view .LVU316
 119:Middlewares/ST/STM32_USB_Device_Library/Core/Src/usbd_ctlreq.c ****     break;
 1069              		.loc 1 119 9 is_stmt 0 view .LVU317
 1070 0018 D0F88C32 		ldr	r3, [r0, #652]
 119:Middlewares/ST/STM32_USB_Device_Library/Core/Src/usbd_ctlreq.c ****     break;
 1071              		.loc 1 119 17 view .LVU318
 1072 001c 9B68     		ldr	r3, [r3, #8]
 119:Middlewares/ST/STM32_USB_Device_Library/Core/Src/usbd_ctlreq.c ****     break;
 1073              		.loc 1 119 5 view .LVU319
 1074 001e 9847     		blx	r3
 1075              	.LVL122:
 120:Middlewares/ST/STM32_USB_Device_Library/Core/Src/usbd_ctlreq.c **** 
 1076              		.loc 1 120 5 is_stmt 1 view .LVU320
 1077              	.L91:
 167:Middlewares/ST/STM32_USB_Device_Library/Core/Src/usbd_ctlreq.c **** }
 1078              		.loc 1 167 3 view .LVU321
 168:Middlewares/ST/STM32_USB_Device_Library/Core/Src/usbd_ctlreq.c **** 
 1079              		.loc 1 168 1 is_stmt 0 view .LVU322
 1080 0020 0020     		movs	r0, #0
 1081 0022 08BD     		pop	{r3, pc}
 1082              	.LVL123:
 1083              	.L103:
 124:Middlewares/ST/STM32_USB_Device_Library/Core/Src/usbd_ctlreq.c ****     {
 1084              		.loc 1 124 5 is_stmt 1 view .LVU323
 124:Middlewares/ST/STM32_USB_Device_Library/Core/Src/usbd_ctlreq.c ****     {
 1085              		.loc 1 124 16 is_stmt 0 view .LVU324
 1086 0024 4B78     		ldrb	r3, [r1, #1]	@ zero_extendqisi2
 1087 0026 092B     		cmp	r3, #9
 1088 0028 1BD8     		bhi	.L92
 1089 002a DFE803F0 		tbb	[pc, r3]
 1090              	.L94:
 1091 002e 11       		.byte	(.L100-.L94)/2
 1092 002f 17       		.byte	(.L99-.L94)/2
 1093 0030 1A       		.byte	(.L92-.L94)/2
 1094 0031 14       		.byte	(.L98-.L94)/2
 1095 0032 1A       		.byte	(.L92-.L94)/2
 1096 0033 08       		.byte	(.L97-.L94)/2
 1097 0034 05       		.byte	(.L96-.L94)/2
 1098 0035 1A       		.byte	(.L92-.L94)/2
ARM GAS  /var/folders/jr/lt9tb7vj2871x9rxdxc0hz4h0000gn/T//ccaStH1G.s 			page 40


 1099 0036 0E       		.byte	(.L95-.L94)/2
 1100 0037 0B       		.byte	(.L93-.L94)/2
 1101              		.p2align 1
 1102              	.L96:
 128:Middlewares/ST/STM32_USB_Device_Library/Core/Src/usbd_ctlreq.c ****       break;
 1103              		.loc 1 128 7 is_stmt 1 view .LVU325
 1104 0038 FFF7FEFF 		bl	USBD_GetDescriptor
 1105              	.LVL124:
 129:Middlewares/ST/STM32_USB_Device_Library/Core/Src/usbd_ctlreq.c **** 
 1106              		.loc 1 129 7 view .LVU326
 1107 003c F0E7     		b	.L91
 1108              	.LVL125:
 1109              	.L97:
 132:Middlewares/ST/STM32_USB_Device_Library/Core/Src/usbd_ctlreq.c ****       break;
 1110              		.loc 1 132 7 view .LVU327
 1111 003e FFF7FEFF 		bl	USBD_SetAddress
 1112              	.LVL126:
 133:Middlewares/ST/STM32_USB_Device_Library/Core/Src/usbd_ctlreq.c **** 
 1113              		.loc 1 133 7 view .LVU328
 1114 0042 EDE7     		b	.L91
 1115              	.LVL127:
 1116              	.L93:
 136:Middlewares/ST/STM32_USB_Device_Library/Core/Src/usbd_ctlreq.c ****       break;
 1117              		.loc 1 136 7 view .LVU329
 1118 0044 FFF7FEFF 		bl	USBD_SetConfig
 1119              	.LVL128:
 137:Middlewares/ST/STM32_USB_Device_Library/Core/Src/usbd_ctlreq.c **** 
 1120              		.loc 1 137 7 view .LVU330
 1121 0048 EAE7     		b	.L91
 1122              	.LVL129:
 1123              	.L95:
 140:Middlewares/ST/STM32_USB_Device_Library/Core/Src/usbd_ctlreq.c ****       break;
 1124              		.loc 1 140 7 view .LVU331
 1125 004a FFF7FEFF 		bl	USBD_GetConfig
 1126              	.LVL130:
 141:Middlewares/ST/STM32_USB_Device_Library/Core/Src/usbd_ctlreq.c **** 
 1127              		.loc 1 141 7 view .LVU332
 1128 004e E7E7     		b	.L91
 1129              	.LVL131:
 1130              	.L100:
 144:Middlewares/ST/STM32_USB_Device_Library/Core/Src/usbd_ctlreq.c ****       break;
 1131              		.loc 1 144 7 view .LVU333
 1132 0050 FFF7FEFF 		bl	USBD_GetStatus
 1133              	.LVL132:
 145:Middlewares/ST/STM32_USB_Device_Library/Core/Src/usbd_ctlreq.c **** 
 1134              		.loc 1 145 7 view .LVU334
 1135 0054 E4E7     		b	.L91
 1136              	.LVL133:
 1137              	.L98:
 149:Middlewares/ST/STM32_USB_Device_Library/Core/Src/usbd_ctlreq.c ****       break;
 1138              		.loc 1 149 7 view .LVU335
 1139 0056 FFF7FEFF 		bl	USBD_SetFeature
 1140              	.LVL134:
 150:Middlewares/ST/STM32_USB_Device_Library/Core/Src/usbd_ctlreq.c **** 
 1141              		.loc 1 150 7 view .LVU336
 1142 005a E1E7     		b	.L91
 1143              	.LVL135:
ARM GAS  /var/folders/jr/lt9tb7vj2871x9rxdxc0hz4h0000gn/T//ccaStH1G.s 			page 41


 1144              	.L99:
 153:Middlewares/ST/STM32_USB_Device_Library/Core/Src/usbd_ctlreq.c ****       break;
 1145              		.loc 1 153 7 view .LVU337
 1146 005c FFF7FEFF 		bl	USBD_ClrFeature
 1147              	.LVL136:
 154:Middlewares/ST/STM32_USB_Device_Library/Core/Src/usbd_ctlreq.c **** 
 1148              		.loc 1 154 7 view .LVU338
 1149 0060 DEE7     		b	.L91
 1150              	.LVL137:
 1151              	.L92:
 157:Middlewares/ST/STM32_USB_Device_Library/Core/Src/usbd_ctlreq.c ****       break;
 1152              		.loc 1 157 7 view .LVU339
 1153 0062 FFF7FEFF 		bl	USBD_CtlError
 1154              	.LVL138:
 158:Middlewares/ST/STM32_USB_Device_Library/Core/Src/usbd_ctlreq.c ****     }
 1155              		.loc 1 158 7 view .LVU340
 1156 0066 DBE7     		b	.L91
 1157              		.cfi_endproc
 1158              	.LFE133:
 1160              		.section	.text.USBD_StdItfReq,"ax",%progbits
 1161              		.align	1
 1162              		.global	USBD_StdItfReq
 1163              		.syntax unified
 1164              		.thumb
 1165              		.thumb_func
 1167              	USBD_StdItfReq:
 1168              	.LVL139:
 1169              	.LFB134:
 178:Middlewares/ST/STM32_USB_Device_Library/Core/Src/usbd_ctlreq.c ****   USBD_StatusTypeDef ret = USBD_OK;
 1170              		.loc 1 178 1 view -0
 1171              		.cfi_startproc
 1172              		@ args = 0, pretend = 0, frame = 0
 1173              		@ frame_needed = 0, uses_anonymous_args = 0
 178:Middlewares/ST/STM32_USB_Device_Library/Core/Src/usbd_ctlreq.c ****   USBD_StatusTypeDef ret = USBD_OK;
 1174              		.loc 1 178 1 is_stmt 0 view .LVU342
 1175 0000 38B5     		push	{r3, r4, r5, lr}
 1176              	.LCFI12:
 1177              		.cfi_def_cfa_offset 16
 1178              		.cfi_offset 3, -16
 1179              		.cfi_offset 4, -12
 1180              		.cfi_offset 5, -8
 1181              		.cfi_offset 14, -4
 1182 0002 0546     		mov	r5, r0
 1183 0004 0C46     		mov	r4, r1
 179:Middlewares/ST/STM32_USB_Device_Library/Core/Src/usbd_ctlreq.c **** 
 1184              		.loc 1 179 3 is_stmt 1 view .LVU343
 1185              	.LVL140:
 181:Middlewares/ST/STM32_USB_Device_Library/Core/Src/usbd_ctlreq.c ****   {
 1186              		.loc 1 181 3 view .LVU344
 181:Middlewares/ST/STM32_USB_Device_Library/Core/Src/usbd_ctlreq.c ****   {
 1187              		.loc 1 181 14 is_stmt 0 view .LVU345
 1188 0006 0B78     		ldrb	r3, [r1]	@ zero_extendqisi2
 1189 0008 03F06003 		and	r3, r3, #96
 181:Middlewares/ST/STM32_USB_Device_Library/Core/Src/usbd_ctlreq.c ****   {
 1190              		.loc 1 181 3 view .LVU346
 1191 000c 202B     		cmp	r3, #32
 1192 000e 06D0     		beq	.L105
ARM GAS  /var/folders/jr/lt9tb7vj2871x9rxdxc0hz4h0000gn/T//ccaStH1G.s 			page 42


 1193 0010 402B     		cmp	r3, #64
 1194 0012 04D0     		beq	.L105
 1195 0014 1BB1     		cbz	r3, .L105
 214:Middlewares/ST/STM32_USB_Device_Library/Core/Src/usbd_ctlreq.c ****     break;
 1196              		.loc 1 214 5 is_stmt 1 view .LVU347
 1197 0016 FFF7FEFF 		bl	USBD_CtlError
 1198              	.LVL141:
 215:Middlewares/ST/STM32_USB_Device_Library/Core/Src/usbd_ctlreq.c ****   }
 1199              		.loc 1 215 5 view .LVU348
 1200              	.L109:
 218:Middlewares/ST/STM32_USB_Device_Library/Core/Src/usbd_ctlreq.c **** }
 1201              		.loc 1 218 3 view .LVU349
 219:Middlewares/ST/STM32_USB_Device_Library/Core/Src/usbd_ctlreq.c **** 
 1202              		.loc 1 219 1 is_stmt 0 view .LVU350
 1203 001a 0020     		movs	r0, #0
 1204 001c 38BD     		pop	{r3, r4, r5, pc}
 1205              	.LVL142:
 1206              	.L105:
 186:Middlewares/ST/STM32_USB_Device_Library/Core/Src/usbd_ctlreq.c ****     {
 1207              		.loc 1 186 5 is_stmt 1 view .LVU351
 186:Middlewares/ST/STM32_USB_Device_Library/Core/Src/usbd_ctlreq.c ****     {
 1208              		.loc 1 186 17 is_stmt 0 view .LVU352
 1209 001e 95F87432 		ldrb	r3, [r5, #628]	@ zero_extendqisi2
 1210 0022 013B     		subs	r3, r3, #1
 1211 0024 022B     		cmp	r3, #2
 1212 0026 16D8     		bhi	.L107
 192:Middlewares/ST/STM32_USB_Device_Library/Core/Src/usbd_ctlreq.c ****       {
 1213              		.loc 1 192 7 is_stmt 1 view .LVU353
 192:Middlewares/ST/STM32_USB_Device_Library/Core/Src/usbd_ctlreq.c ****       {
 1214              		.loc 1 192 11 is_stmt 0 view .LVU354
 1215 0028 2379     		ldrb	r3, [r4, #4]	@ zero_extendqisi2
 192:Middlewares/ST/STM32_USB_Device_Library/Core/Src/usbd_ctlreq.c ****       {
 1216              		.loc 1 192 10 view .LVU355
 1217 002a 012B     		cmp	r3, #1
 1218 002c 0ED8     		bhi	.L108
 194:Middlewares/ST/STM32_USB_Device_Library/Core/Src/usbd_ctlreq.c **** 
 1219              		.loc 1 194 9 is_stmt 1 view .LVU356
 194:Middlewares/ST/STM32_USB_Device_Library/Core/Src/usbd_ctlreq.c **** 
 1220              		.loc 1 194 39 is_stmt 0 view .LVU357
 1221 002e D5F88C32 		ldr	r3, [r5, #652]
 194:Middlewares/ST/STM32_USB_Device_Library/Core/Src/usbd_ctlreq.c **** 
 1222              		.loc 1 194 47 view .LVU358
 1223 0032 9B68     		ldr	r3, [r3, #8]
 194:Middlewares/ST/STM32_USB_Device_Library/Core/Src/usbd_ctlreq.c **** 
 1224              		.loc 1 194 35 view .LVU359
 1225 0034 2146     		mov	r1, r4
 1226              	.LVL143:
 194:Middlewares/ST/STM32_USB_Device_Library/Core/Src/usbd_ctlreq.c **** 
 1227              		.loc 1 194 35 view .LVU360
 1228 0036 2846     		mov	r0, r5
 1229              	.LVL144:
 194:Middlewares/ST/STM32_USB_Device_Library/Core/Src/usbd_ctlreq.c **** 
 1230              		.loc 1 194 35 view .LVU361
 1231 0038 9847     		blx	r3
 1232              	.LVL145:
 196:Middlewares/ST/STM32_USB_Device_Library/Core/Src/usbd_ctlreq.c ****         {
 1233              		.loc 1 196 9 is_stmt 1 view .LVU362
ARM GAS  /var/folders/jr/lt9tb7vj2871x9rxdxc0hz4h0000gn/T//ccaStH1G.s 			page 43


 196:Middlewares/ST/STM32_USB_Device_Library/Core/Src/usbd_ctlreq.c ****         {
 1234              		.loc 1 196 17 is_stmt 0 view .LVU363
 1235 003a E388     		ldrh	r3, [r4, #6]
 196:Middlewares/ST/STM32_USB_Device_Library/Core/Src/usbd_ctlreq.c ****         {
 1236              		.loc 1 196 12 view .LVU364
 1237 003c 002B     		cmp	r3, #0
 1238 003e ECD1     		bne	.L109
 196:Middlewares/ST/STM32_USB_Device_Library/Core/Src/usbd_ctlreq.c ****         {
 1239              		.loc 1 196 34 discriminator 1 view .LVU365
 1240 0040 0028     		cmp	r0, #0
 1241 0042 EAD1     		bne	.L109
 198:Middlewares/ST/STM32_USB_Device_Library/Core/Src/usbd_ctlreq.c ****         }
 1242              		.loc 1 198 11 is_stmt 1 view .LVU366
 1243 0044 2846     		mov	r0, r5
 1244              	.LVL146:
 198:Middlewares/ST/STM32_USB_Device_Library/Core/Src/usbd_ctlreq.c ****         }
 1245              		.loc 1 198 11 is_stmt 0 view .LVU367
 1246 0046 FFF7FEFF 		bl	USBD_CtlSendStatus
 1247              	.LVL147:
 1248 004a E6E7     		b	.L109
 1249              	.LVL148:
 1250              	.L108:
 203:Middlewares/ST/STM32_USB_Device_Library/Core/Src/usbd_ctlreq.c ****       }
 1251              		.loc 1 203 9 is_stmt 1 view .LVU368
 1252 004c 2146     		mov	r1, r4
 1253              	.LVL149:
 203:Middlewares/ST/STM32_USB_Device_Library/Core/Src/usbd_ctlreq.c ****       }
 1254              		.loc 1 203 9 is_stmt 0 view .LVU369
 1255 004e 2846     		mov	r0, r5
 1256              	.LVL150:
 203:Middlewares/ST/STM32_USB_Device_Library/Core/Src/usbd_ctlreq.c ****       }
 1257              		.loc 1 203 9 view .LVU370
 1258 0050 FFF7FEFF 		bl	USBD_CtlError
 1259              	.LVL151:
 1260 0054 E1E7     		b	.L109
 1261              	.LVL152:
 1262              	.L107:
 208:Middlewares/ST/STM32_USB_Device_Library/Core/Src/usbd_ctlreq.c ****       break;
 1263              		.loc 1 208 7 is_stmt 1 view .LVU371
 1264 0056 2146     		mov	r1, r4
 1265              	.LVL153:
 208:Middlewares/ST/STM32_USB_Device_Library/Core/Src/usbd_ctlreq.c ****       break;
 1266              		.loc 1 208 7 is_stmt 0 view .LVU372
 1267 0058 2846     		mov	r0, r5
 1268              	.LVL154:
 208:Middlewares/ST/STM32_USB_Device_Library/Core/Src/usbd_ctlreq.c ****       break;
 1269              		.loc 1 208 7 view .LVU373
 1270 005a FFF7FEFF 		bl	USBD_CtlError
 1271              	.LVL155:
 209:Middlewares/ST/STM32_USB_Device_Library/Core/Src/usbd_ctlreq.c ****     }
 1272              		.loc 1 209 7 is_stmt 1 view .LVU374
 1273 005e DCE7     		b	.L109
 1274              		.cfi_endproc
 1275              	.LFE134:
 1277              		.section	.text.USBD_StdEPReq,"ax",%progbits
 1278              		.align	1
 1279              		.global	USBD_StdEPReq
ARM GAS  /var/folders/jr/lt9tb7vj2871x9rxdxc0hz4h0000gn/T//ccaStH1G.s 			page 44


 1280              		.syntax unified
 1281              		.thumb
 1282              		.thumb_func
 1284              	USBD_StdEPReq:
 1285              	.LVL156:
 1286              	.LFB135:
 229:Middlewares/ST/STM32_USB_Device_Library/Core/Src/usbd_ctlreq.c **** 
 1287              		.loc 1 229 1 view -0
 1288              		.cfi_startproc
 1289              		@ args = 0, pretend = 0, frame = 0
 1290              		@ frame_needed = 0, uses_anonymous_args = 0
 229:Middlewares/ST/STM32_USB_Device_Library/Core/Src/usbd_ctlreq.c **** 
 1291              		.loc 1 229 1 is_stmt 0 view .LVU376
 1292 0000 70B5     		push	{r4, r5, r6, lr}
 1293              	.LCFI13:
 1294              		.cfi_def_cfa_offset 16
 1295              		.cfi_offset 4, -16
 1296              		.cfi_offset 5, -12
 1297              		.cfi_offset 6, -8
 1298              		.cfi_offset 14, -4
 1299 0002 0546     		mov	r5, r0
 231:Middlewares/ST/STM32_USB_Device_Library/Core/Src/usbd_ctlreq.c ****   USBD_StatusTypeDef ret = USBD_OK;
 1300              		.loc 1 231 3 is_stmt 1 view .LVU377
 232:Middlewares/ST/STM32_USB_Device_Library/Core/Src/usbd_ctlreq.c ****   USBD_EndpointTypeDef   *pep;
 1301              		.loc 1 232 3 view .LVU378
 1302              	.LVL157:
 233:Middlewares/ST/STM32_USB_Device_Library/Core/Src/usbd_ctlreq.c ****   ep_addr  = LOBYTE(req->wIndex);
 1303              		.loc 1 233 3 view .LVU379
 234:Middlewares/ST/STM32_USB_Device_Library/Core/Src/usbd_ctlreq.c **** 
 1304              		.loc 1 234 3 view .LVU380
 234:Middlewares/ST/STM32_USB_Device_Library/Core/Src/usbd_ctlreq.c **** 
 1305              		.loc 1 234 14 is_stmt 0 view .LVU381
 1306 0004 8B88     		ldrh	r3, [r1, #4]
 1307              	.LVL158:
 236:Middlewares/ST/STM32_USB_Device_Library/Core/Src/usbd_ctlreq.c ****   {
 1308              		.loc 1 236 3 is_stmt 1 view .LVU382
 236:Middlewares/ST/STM32_USB_Device_Library/Core/Src/usbd_ctlreq.c ****   {
 1309              		.loc 1 236 14 is_stmt 0 view .LVU383
 1310 0006 0C78     		ldrb	r4, [r1]	@ zero_extendqisi2
 1311 0008 04F06004 		and	r4, r4, #96
 236:Middlewares/ST/STM32_USB_Device_Library/Core/Src/usbd_ctlreq.c ****   {
 1312              		.loc 1 236 3 view .LVU384
 1313 000c 202C     		cmp	r4, #32
 1314 000e 07D0     		beq	.L112
 1315 0010 DAB2     		uxtb	r2, r3
 1316 0012 402C     		cmp	r4, #64
 1317 0014 04D0     		beq	.L112
 1318 0016 5CB1     		cbz	r4, .L151
 390:Middlewares/ST/STM32_USB_Device_Library/Core/Src/usbd_ctlreq.c ****     break;
 1319              		.loc 1 390 5 is_stmt 1 view .LVU385
 1320 0018 FFF7FEFF 		bl	USBD_CtlError
 1321              	.LVL159:
 391:Middlewares/ST/STM32_USB_Device_Library/Core/Src/usbd_ctlreq.c ****   }
 1322              		.loc 1 391 5 view .LVU386
 394:Middlewares/ST/STM32_USB_Device_Library/Core/Src/usbd_ctlreq.c **** }
 1323              		.loc 1 394 10 is_stmt 0 view .LVU387
 1324 001c 0024     		movs	r4, #0
ARM GAS  /var/folders/jr/lt9tb7vj2871x9rxdxc0hz4h0000gn/T//ccaStH1G.s 			page 45


 391:Middlewares/ST/STM32_USB_Device_Library/Core/Src/usbd_ctlreq.c ****   }
 1325              		.loc 1 391 5 view .LVU388
 1326 001e 05E0     		b	.L115
 1327              	.LVL160:
 1328              	.L112:
 241:Middlewares/ST/STM32_USB_Device_Library/Core/Src/usbd_ctlreq.c ****     break;
 1329              		.loc 1 241 5 is_stmt 1 view .LVU389
 241:Middlewares/ST/STM32_USB_Device_Library/Core/Src/usbd_ctlreq.c ****     break;
 1330              		.loc 1 241 9 is_stmt 0 view .LVU390
 1331 0020 D5F88C32 		ldr	r3, [r5, #652]
 1332              	.LVL161:
 241:Middlewares/ST/STM32_USB_Device_Library/Core/Src/usbd_ctlreq.c ****     break;
 1333              		.loc 1 241 17 view .LVU391
 1334 0024 9B68     		ldr	r3, [r3, #8]
 241:Middlewares/ST/STM32_USB_Device_Library/Core/Src/usbd_ctlreq.c ****     break;
 1335              		.loc 1 241 5 view .LVU392
 1336 0026 2846     		mov	r0, r5
 1337              	.LVL162:
 241:Middlewares/ST/STM32_USB_Device_Library/Core/Src/usbd_ctlreq.c ****     break;
 1338              		.loc 1 241 5 view .LVU393
 1339 0028 9847     		blx	r3
 1340              	.LVL163:
 242:Middlewares/ST/STM32_USB_Device_Library/Core/Src/usbd_ctlreq.c **** 
 1341              		.loc 1 242 5 is_stmt 1 view .LVU394
 394:Middlewares/ST/STM32_USB_Device_Library/Core/Src/usbd_ctlreq.c **** }
 1342              		.loc 1 394 10 is_stmt 0 view .LVU395
 1343 002a 0024     		movs	r4, #0
 1344              	.LVL164:
 1345              	.L115:
 395:Middlewares/ST/STM32_USB_Device_Library/Core/Src/usbd_ctlreq.c **** /**
 1346              		.loc 1 395 1 view .LVU396
 1347 002c 2046     		mov	r0, r4
 1348 002e 70BD     		pop	{r4, r5, r6, pc}
 1349              	.LVL165:
 1350              	.L151:
 246:Middlewares/ST/STM32_USB_Device_Library/Core/Src/usbd_ctlreq.c ****     {
 1351              		.loc 1 246 5 is_stmt 1 view .LVU397
 246:Middlewares/ST/STM32_USB_Device_Library/Core/Src/usbd_ctlreq.c ****     {
 1352              		.loc 1 246 8 is_stmt 0 view .LVU398
 1353 0030 202C     		cmp	r4, #32
 1354 0032 09D0     		beq	.L152
 253:Middlewares/ST/STM32_USB_Device_Library/Core/Src/usbd_ctlreq.c ****     {
 1355              		.loc 1 253 5 is_stmt 1 view .LVU399
 253:Middlewares/ST/STM32_USB_Device_Library/Core/Src/usbd_ctlreq.c ****     {
 1356              		.loc 1 253 16 is_stmt 0 view .LVU400
 1357 0034 4E78     		ldrb	r6, [r1, #1]	@ zero_extendqisi2
 1358 0036 012E     		cmp	r6, #1
 1359 0038 33D0     		beq	.L117
 1360 003a 032E     		cmp	r6, #3
 1361 003c 0AD0     		beq	.L118
 1362 003e 002E     		cmp	r6, #0
 1363 0040 55D0     		beq	.L153
 384:Middlewares/ST/STM32_USB_Device_Library/Core/Src/usbd_ctlreq.c ****       break;
 1364              		.loc 1 384 7 is_stmt 1 view .LVU401
 1365 0042 FFF7FEFF 		bl	USBD_CtlError
 1366              	.LVL166:
 385:Middlewares/ST/STM32_USB_Device_Library/Core/Src/usbd_ctlreq.c ****     }
ARM GAS  /var/folders/jr/lt9tb7vj2871x9rxdxc0hz4h0000gn/T//ccaStH1G.s 			page 46


 1367              		.loc 1 385 7 view .LVU402
 1368 0046 F1E7     		b	.L115
 1369              	.LVL167:
 1370              	.L152:
 248:Middlewares/ST/STM32_USB_Device_Library/Core/Src/usbd_ctlreq.c **** 
 1371              		.loc 1 248 7 view .LVU403
 248:Middlewares/ST/STM32_USB_Device_Library/Core/Src/usbd_ctlreq.c **** 
 1372              		.loc 1 248 37 is_stmt 0 view .LVU404
 1373 0048 D0F88C32 		ldr	r3, [r0, #652]
 1374              	.LVL168:
 248:Middlewares/ST/STM32_USB_Device_Library/Core/Src/usbd_ctlreq.c **** 
 1375              		.loc 1 248 45 view .LVU405
 1376 004c 9B68     		ldr	r3, [r3, #8]
 248:Middlewares/ST/STM32_USB_Device_Library/Core/Src/usbd_ctlreq.c **** 
 1377              		.loc 1 248 33 view .LVU406
 1378 004e 9847     		blx	r3
 1379              	.LVL169:
 248:Middlewares/ST/STM32_USB_Device_Library/Core/Src/usbd_ctlreq.c **** 
 1380              		.loc 1 248 33 view .LVU407
 1381 0050 0446     		mov	r4, r0
 1382              	.LVL170:
 250:Middlewares/ST/STM32_USB_Device_Library/Core/Src/usbd_ctlreq.c ****     }
 1383              		.loc 1 250 7 is_stmt 1 view .LVU408
 250:Middlewares/ST/STM32_USB_Device_Library/Core/Src/usbd_ctlreq.c ****     }
 1384              		.loc 1 250 14 is_stmt 0 view .LVU409
 1385 0052 EBE7     		b	.L115
 1386              	.LVL171:
 1387              	.L118:
 258:Middlewares/ST/STM32_USB_Device_Library/Core/Src/usbd_ctlreq.c ****       {
 1388              		.loc 1 258 7 is_stmt 1 discriminator 3 view .LVU410
 258:Middlewares/ST/STM32_USB_Device_Library/Core/Src/usbd_ctlreq.c ****       {
 1389              		.loc 1 258 19 is_stmt 0 discriminator 3 view .LVU411
 1390 0054 90F87432 		ldrb	r3, [r0, #628]	@ zero_extendqisi2
 1391              	.LVL172:
 258:Middlewares/ST/STM32_USB_Device_Library/Core/Src/usbd_ctlreq.c ****       {
 1392              		.loc 1 258 19 discriminator 3 view .LVU412
 1393 0058 022B     		cmp	r3, #2
 1394 005a 04D0     		beq	.L121
 1395 005c 032B     		cmp	r3, #3
 1396 005e 11D0     		beq	.L122
 285:Middlewares/ST/STM32_USB_Device_Library/Core/Src/usbd_ctlreq.c ****         break;
 1397              		.loc 1 285 9 is_stmt 1 view .LVU413
 1398 0060 FFF7FEFF 		bl	USBD_CtlError
 1399              	.LVL173:
 286:Middlewares/ST/STM32_USB_Device_Library/Core/Src/usbd_ctlreq.c ****       }
 1400              		.loc 1 286 9 view .LVU414
 1401 0064 E2E7     		b	.L115
 1402              	.LVL174:
 1403              	.L121:
 261:Middlewares/ST/STM32_USB_Device_Library/Core/Src/usbd_ctlreq.c ****         {
 1404              		.loc 1 261 9 view .LVU415
 261:Middlewares/ST/STM32_USB_Device_Library/Core/Src/usbd_ctlreq.c ****         {
 1405              		.loc 1 261 12 is_stmt 0 view .LVU416
 1406 0066 0AB1     		cbz	r2, .L124
 261:Middlewares/ST/STM32_USB_Device_Library/Core/Src/usbd_ctlreq.c ****         {
 1407              		.loc 1 261 32 discriminator 1 view .LVU417
 1408 0068 802A     		cmp	r2, #128
ARM GAS  /var/folders/jr/lt9tb7vj2871x9rxdxc0hz4h0000gn/T//ccaStH1G.s 			page 47


 1409 006a 03D1     		bne	.L154
 1410              	.L124:
 268:Middlewares/ST/STM32_USB_Device_Library/Core/Src/usbd_ctlreq.c ****         }
 1411              		.loc 1 268 11 is_stmt 1 view .LVU418
 1412 006c 2846     		mov	r0, r5
 1413              	.LVL175:
 268:Middlewares/ST/STM32_USB_Device_Library/Core/Src/usbd_ctlreq.c ****         }
 1414              		.loc 1 268 11 is_stmt 0 view .LVU419
 1415 006e FFF7FEFF 		bl	USBD_CtlError
 1416              	.LVL176:
 268:Middlewares/ST/STM32_USB_Device_Library/Core/Src/usbd_ctlreq.c ****         }
 1417              		.loc 1 268 11 view .LVU420
 1418 0072 DBE7     		b	.L115
 1419              	.LVL177:
 1420              	.L154:
 263:Middlewares/ST/STM32_USB_Device_Library/Core/Src/usbd_ctlreq.c ****           USBD_LL_StallEP(pdev, 0x80U);
 1421              		.loc 1 263 11 is_stmt 1 view .LVU421
 1422 0074 1146     		mov	r1, r2
 1423              	.LVL178:
 263:Middlewares/ST/STM32_USB_Device_Library/Core/Src/usbd_ctlreq.c ****           USBD_LL_StallEP(pdev, 0x80U);
 1424              		.loc 1 263 11 is_stmt 0 view .LVU422
 1425 0076 FFF7FEFF 		bl	USBD_LL_StallEP
 1426              	.LVL179:
 264:Middlewares/ST/STM32_USB_Device_Library/Core/Src/usbd_ctlreq.c ****         }
 1427              		.loc 1 264 11 is_stmt 1 view .LVU423
 1428 007a 8021     		movs	r1, #128
 1429 007c 2846     		mov	r0, r5
 1430 007e FFF7FEFF 		bl	USBD_LL_StallEP
 1431              	.LVL180:
 1432 0082 D3E7     		b	.L115
 1433              	.LVL181:
 1434              	.L122:
 273:Middlewares/ST/STM32_USB_Device_Library/Core/Src/usbd_ctlreq.c ****         {
 1435              		.loc 1 273 9 view .LVU424
 273:Middlewares/ST/STM32_USB_Device_Library/Core/Src/usbd_ctlreq.c ****         {
 1436              		.loc 1 273 16 is_stmt 0 view .LVU425
 1437 0084 4B88     		ldrh	r3, [r1, #2]
 273:Middlewares/ST/STM32_USB_Device_Library/Core/Src/usbd_ctlreq.c ****         {
 1438              		.loc 1 273 12 view .LVU426
 1439 0086 23B9     		cbnz	r3, .L125
 275:Middlewares/ST/STM32_USB_Device_Library/Core/Src/usbd_ctlreq.c ****           {
 1440              		.loc 1 275 11 is_stmt 1 view .LVU427
 275:Middlewares/ST/STM32_USB_Device_Library/Core/Src/usbd_ctlreq.c ****           {
 1441              		.loc 1 275 14 is_stmt 0 view .LVU428
 1442 0088 1AB1     		cbz	r2, .L125
 275:Middlewares/ST/STM32_USB_Device_Library/Core/Src/usbd_ctlreq.c ****           {
 1443              		.loc 1 275 34 discriminator 1 view .LVU429
 1444 008a 802A     		cmp	r2, #128
 1445 008c 01D0     		beq	.L125
 275:Middlewares/ST/STM32_USB_Device_Library/Core/Src/usbd_ctlreq.c ****           {
 1446              		.loc 1 275 63 discriminator 2 view .LVU430
 1447 008e CB88     		ldrh	r3, [r1, #6]
 275:Middlewares/ST/STM32_USB_Device_Library/Core/Src/usbd_ctlreq.c ****           {
 1448              		.loc 1 275 56 discriminator 2 view .LVU431
 1449 0090 1BB1     		cbz	r3, .L155
 1450              	.LVL182:
 1451              	.L125:
ARM GAS  /var/folders/jr/lt9tb7vj2871x9rxdxc0hz4h0000gn/T//ccaStH1G.s 			page 48


 280:Middlewares/ST/STM32_USB_Device_Library/Core/Src/usbd_ctlreq.c **** 
 1452              		.loc 1 280 9 is_stmt 1 view .LVU432
 1453 0092 2846     		mov	r0, r5
 1454 0094 FFF7FEFF 		bl	USBD_CtlSendStatus
 1455              	.LVL183:
 282:Middlewares/ST/STM32_USB_Device_Library/Core/Src/usbd_ctlreq.c **** 
 1456              		.loc 1 282 9 view .LVU433
 1457 0098 C8E7     		b	.L115
 1458              	.LVL184:
 1459              	.L155:
 277:Middlewares/ST/STM32_USB_Device_Library/Core/Src/usbd_ctlreq.c ****           }
 1460              		.loc 1 277 13 view .LVU434
 1461 009a 1146     		mov	r1, r2
 1462              	.LVL185:
 277:Middlewares/ST/STM32_USB_Device_Library/Core/Src/usbd_ctlreq.c ****           }
 1463              		.loc 1 277 13 is_stmt 0 view .LVU435
 1464 009c FFF7FEFF 		bl	USBD_LL_StallEP
 1465              	.LVL186:
 277:Middlewares/ST/STM32_USB_Device_Library/Core/Src/usbd_ctlreq.c ****           }
 1466              		.loc 1 277 13 view .LVU436
 1467 00a0 F7E7     		b	.L125
 1468              	.LVL187:
 1469              	.L117:
 292:Middlewares/ST/STM32_USB_Device_Library/Core/Src/usbd_ctlreq.c ****       {
 1470              		.loc 1 292 7 is_stmt 1 discriminator 2 view .LVU437
 292:Middlewares/ST/STM32_USB_Device_Library/Core/Src/usbd_ctlreq.c ****       {
 1471              		.loc 1 292 19 is_stmt 0 discriminator 2 view .LVU438
 1472 00a2 90F87432 		ldrb	r3, [r0, #628]	@ zero_extendqisi2
 1473              	.LVL188:
 292:Middlewares/ST/STM32_USB_Device_Library/Core/Src/usbd_ctlreq.c ****       {
 1474              		.loc 1 292 19 discriminator 2 view .LVU439
 1475 00a6 022B     		cmp	r3, #2
 1476 00a8 04D0     		beq	.L126
 1477 00aa 032B     		cmp	r3, #3
 1478 00ac 11D0     		beq	.L127
 318:Middlewares/ST/STM32_USB_Device_Library/Core/Src/usbd_ctlreq.c ****         break;
 1479              		.loc 1 318 9 is_stmt 1 view .LVU440
 1480 00ae FFF7FEFF 		bl	USBD_CtlError
 1481              	.LVL189:
 319:Middlewares/ST/STM32_USB_Device_Library/Core/Src/usbd_ctlreq.c ****       }
 1482              		.loc 1 319 9 view .LVU441
 1483 00b2 BBE7     		b	.L115
 1484              	.LVL190:
 1485              	.L126:
 295:Middlewares/ST/STM32_USB_Device_Library/Core/Src/usbd_ctlreq.c ****         {
 1486              		.loc 1 295 9 view .LVU442
 295:Middlewares/ST/STM32_USB_Device_Library/Core/Src/usbd_ctlreq.c ****         {
 1487              		.loc 1 295 12 is_stmt 0 view .LVU443
 1488 00b4 0AB1     		cbz	r2, .L129
 295:Middlewares/ST/STM32_USB_Device_Library/Core/Src/usbd_ctlreq.c ****         {
 1489              		.loc 1 295 32 discriminator 1 view .LVU444
 1490 00b6 802A     		cmp	r2, #128
 1491 00b8 03D1     		bne	.L156
 1492              	.L129:
 302:Middlewares/ST/STM32_USB_Device_Library/Core/Src/usbd_ctlreq.c ****         }
 1493              		.loc 1 302 11 is_stmt 1 view .LVU445
 1494 00ba 2846     		mov	r0, r5
ARM GAS  /var/folders/jr/lt9tb7vj2871x9rxdxc0hz4h0000gn/T//ccaStH1G.s 			page 49


 1495              	.LVL191:
 302:Middlewares/ST/STM32_USB_Device_Library/Core/Src/usbd_ctlreq.c ****         }
 1496              		.loc 1 302 11 is_stmt 0 view .LVU446
 1497 00bc FFF7FEFF 		bl	USBD_CtlError
 1498              	.LVL192:
 302:Middlewares/ST/STM32_USB_Device_Library/Core/Src/usbd_ctlreq.c ****         }
 1499              		.loc 1 302 11 view .LVU447
 1500 00c0 B4E7     		b	.L115
 1501              	.LVL193:
 1502              	.L156:
 297:Middlewares/ST/STM32_USB_Device_Library/Core/Src/usbd_ctlreq.c ****           USBD_LL_StallEP(pdev, 0x80U);
 1503              		.loc 1 297 11 is_stmt 1 view .LVU448
 1504 00c2 1146     		mov	r1, r2
 1505              	.LVL194:
 297:Middlewares/ST/STM32_USB_Device_Library/Core/Src/usbd_ctlreq.c ****           USBD_LL_StallEP(pdev, 0x80U);
 1506              		.loc 1 297 11 is_stmt 0 view .LVU449
 1507 00c4 FFF7FEFF 		bl	USBD_LL_StallEP
 1508              	.LVL195:
 298:Middlewares/ST/STM32_USB_Device_Library/Core/Src/usbd_ctlreq.c ****         }
 1509              		.loc 1 298 11 is_stmt 1 view .LVU450
 1510 00c8 8021     		movs	r1, #128
 1511 00ca 2846     		mov	r0, r5
 1512 00cc FFF7FEFF 		bl	USBD_LL_StallEP
 1513              	.LVL196:
 1514 00d0 ACE7     		b	.L115
 1515              	.LVL197:
 1516              	.L127:
 307:Middlewares/ST/STM32_USB_Device_Library/Core/Src/usbd_ctlreq.c ****         {
 1517              		.loc 1 307 9 view .LVU451
 307:Middlewares/ST/STM32_USB_Device_Library/Core/Src/usbd_ctlreq.c ****         {
 1518              		.loc 1 307 16 is_stmt 0 view .LVU452
 1519 00d2 4B88     		ldrh	r3, [r1, #2]
 307:Middlewares/ST/STM32_USB_Device_Library/Core/Src/usbd_ctlreq.c ****         {
 1520              		.loc 1 307 12 view .LVU453
 1521 00d4 002B     		cmp	r3, #0
 1522 00d6 A9D1     		bne	.L115
 309:Middlewares/ST/STM32_USB_Device_Library/Core/Src/usbd_ctlreq.c ****           {
 1523              		.loc 1 309 11 is_stmt 1 view .LVU454
 309:Middlewares/ST/STM32_USB_Device_Library/Core/Src/usbd_ctlreq.c ****           {
 1524              		.loc 1 309 14 is_stmt 0 view .LVU455
 1525 00d8 12F07F0F 		tst	r2, #127
 1526 00dc 03D1     		bne	.L157
 1527              	.LVL198:
 1528              	.L130:
 313:Middlewares/ST/STM32_USB_Device_Library/Core/Src/usbd_ctlreq.c ****         }
 1529              		.loc 1 313 11 is_stmt 1 view .LVU456
 1530 00de 2846     		mov	r0, r5
 1531 00e0 FFF7FEFF 		bl	USBD_CtlSendStatus
 1532              	.LVL199:
 1533 00e4 A2E7     		b	.L115
 1534              	.LVL200:
 1535              	.L157:
 311:Middlewares/ST/STM32_USB_Device_Library/Core/Src/usbd_ctlreq.c ****           }
 1536              		.loc 1 311 13 view .LVU457
 1537 00e6 1146     		mov	r1, r2
 1538              	.LVL201:
 311:Middlewares/ST/STM32_USB_Device_Library/Core/Src/usbd_ctlreq.c ****           }
ARM GAS  /var/folders/jr/lt9tb7vj2871x9rxdxc0hz4h0000gn/T//ccaStH1G.s 			page 50


 1539              		.loc 1 311 13 is_stmt 0 view .LVU458
 1540 00e8 FFF7FEFF 		bl	USBD_LL_ClearStallEP
 1541              	.LVL202:
 311:Middlewares/ST/STM32_USB_Device_Library/Core/Src/usbd_ctlreq.c ****           }
 1542              		.loc 1 311 13 view .LVU459
 1543 00ec F7E7     		b	.L130
 1544              	.LVL203:
 1545              	.L153:
 324:Middlewares/ST/STM32_USB_Device_Library/Core/Src/usbd_ctlreq.c ****       {
 1546              		.loc 1 324 7 is_stmt 1 discriminator 1 view .LVU460
 324:Middlewares/ST/STM32_USB_Device_Library/Core/Src/usbd_ctlreq.c ****       {
 1547              		.loc 1 324 19 is_stmt 0 discriminator 1 view .LVU461
 1548 00ee 90F87402 		ldrb	r0, [r0, #628]	@ zero_extendqisi2
 1549              	.LVL204:
 324:Middlewares/ST/STM32_USB_Device_Library/Core/Src/usbd_ctlreq.c ****       {
 1550              		.loc 1 324 19 discriminator 1 view .LVU462
 1551 00f2 0228     		cmp	r0, #2
 1552 00f4 06D0     		beq	.L131
 1553 00f6 0328     		cmp	r0, #3
 1554 00f8 28D0     		beq	.L132
 378:Middlewares/ST/STM32_USB_Device_Library/Core/Src/usbd_ctlreq.c ****         break;
 1555              		.loc 1 378 9 is_stmt 1 view .LVU463
 1556 00fa 2846     		mov	r0, r5
 1557 00fc FFF7FEFF 		bl	USBD_CtlError
 1558              	.LVL205:
 379:Middlewares/ST/STM32_USB_Device_Library/Core/Src/usbd_ctlreq.c ****       }
 1559              		.loc 1 379 9 view .LVU464
 394:Middlewares/ST/STM32_USB_Device_Library/Core/Src/usbd_ctlreq.c **** }
 1560              		.loc 1 394 10 is_stmt 0 view .LVU465
 1561 0100 3446     		mov	r4, r6
 379:Middlewares/ST/STM32_USB_Device_Library/Core/Src/usbd_ctlreq.c ****       }
 1562              		.loc 1 379 9 view .LVU466
 1563 0102 93E7     		b	.L115
 1564              	.LVL206:
 1565              	.L131:
 327:Middlewares/ST/STM32_USB_Device_Library/Core/Src/usbd_ctlreq.c ****         {
 1566              		.loc 1 327 9 is_stmt 1 view .LVU467
 327:Middlewares/ST/STM32_USB_Device_Library/Core/Src/usbd_ctlreq.c ****         {
 1567              		.loc 1 327 12 is_stmt 0 view .LVU468
 1568 0104 0AB1     		cbz	r2, .L134
 327:Middlewares/ST/STM32_USB_Device_Library/Core/Src/usbd_ctlreq.c ****         {
 1569              		.loc 1 327 32 discriminator 1 view .LVU469
 1570 0106 802A     		cmp	r2, #128
 1571 0108 12D1     		bne	.L158
 1572              	.L134:
 332:Middlewares/ST/STM32_USB_Device_Library/Core/Src/usbd_ctlreq.c ****           &pdev->ep_out[ep_addr & 0x7FU];
 1573              		.loc 1 332 9 is_stmt 1 view .LVU470
 332:Middlewares/ST/STM32_USB_Device_Library/Core/Src/usbd_ctlreq.c ****           &pdev->ep_out[ep_addr & 0x7FU];
 1574              		.loc 1 332 75 is_stmt 0 view .LVU471
 1575 010a 13F0800F 		tst	r3, #128
 1576 010e 14D1     		bne	.L159
 333:Middlewares/ST/STM32_USB_Device_Library/Core/Src/usbd_ctlreq.c **** 
 1577              		.loc 1 333 33 discriminator 2 view .LVU472
 1578 0110 02F07F02 		and	r2, r2, #127
 332:Middlewares/ST/STM32_USB_Device_Library/Core/Src/usbd_ctlreq.c ****           &pdev->ep_out[ep_addr & 0x7FU];
 1579              		.loc 1 332 75 discriminator 2 view .LVU473
 1580 0114 02EB8202 		add	r2, r2, r2, lsl #2
ARM GAS  /var/folders/jr/lt9tb7vj2871x9rxdxc0hz4h0000gn/T//ccaStH1G.s 			page 51


 1581 0118 9100     		lsls	r1, r2, #2
 1582              	.LVL207:
 332:Middlewares/ST/STM32_USB_Device_Library/Core/Src/usbd_ctlreq.c ****           &pdev->ep_out[ep_addr & 0x7FU];
 1583              		.loc 1 332 75 discriminator 2 view .LVU474
 1584 011a 01F5A071 		add	r1, r1, #320
 1585 011e 2944     		add	r1, r1, r5
 1586              	.L136:
 1587              	.LVL208:
 335:Middlewares/ST/STM32_USB_Device_Library/Core/Src/usbd_ctlreq.c **** 
 1588              		.loc 1 335 11 is_stmt 1 discriminator 4 view .LVU475
 335:Middlewares/ST/STM32_USB_Device_Library/Core/Src/usbd_ctlreq.c **** 
 1589              		.loc 1 335 23 is_stmt 0 discriminator 4 view .LVU476
 1590 0120 0023     		movs	r3, #0
 1591              	.LVL209:
 335:Middlewares/ST/STM32_USB_Device_Library/Core/Src/usbd_ctlreq.c **** 
 1592              		.loc 1 335 23 discriminator 4 view .LVU477
 1593 0122 0B60     		str	r3, [r1]
 1594              	.LVL210:
 337:Middlewares/ST/STM32_USB_Device_Library/Core/Src/usbd_ctlreq.c ****           break;
 1595              		.loc 1 337 11 is_stmt 1 discriminator 4 view .LVU478
 1596 0124 0222     		movs	r2, #2
 1597 0126 2846     		mov	r0, r5
 1598 0128 FFF7FEFF 		bl	USBD_CtlSendData
 1599              	.LVL211:
 338:Middlewares/ST/STM32_USB_Device_Library/Core/Src/usbd_ctlreq.c **** 
 1600              		.loc 1 338 11 discriminator 4 view .LVU479
 394:Middlewares/ST/STM32_USB_Device_Library/Core/Src/usbd_ctlreq.c **** }
 1601              		.loc 1 394 10 is_stmt 0 discriminator 4 view .LVU480
 1602 012c 3446     		mov	r4, r6
 338:Middlewares/ST/STM32_USB_Device_Library/Core/Src/usbd_ctlreq.c **** 
 1603              		.loc 1 338 11 discriminator 4 view .LVU481
 1604 012e 7DE7     		b	.L115
 1605              	.LVL212:
 1606              	.L158:
 329:Middlewares/ST/STM32_USB_Device_Library/Core/Src/usbd_ctlreq.c ****           break;
 1607              		.loc 1 329 11 is_stmt 1 view .LVU482
 1608 0130 2846     		mov	r0, r5
 1609 0132 FFF7FEFF 		bl	USBD_CtlError
 1610              	.LVL213:
 330:Middlewares/ST/STM32_USB_Device_Library/Core/Src/usbd_ctlreq.c ****         }
 1611              		.loc 1 330 11 view .LVU483
 394:Middlewares/ST/STM32_USB_Device_Library/Core/Src/usbd_ctlreq.c **** }
 1612              		.loc 1 394 10 is_stmt 0 view .LVU484
 1613 0136 3446     		mov	r4, r6
 330:Middlewares/ST/STM32_USB_Device_Library/Core/Src/usbd_ctlreq.c ****         }
 1614              		.loc 1 330 11 view .LVU485
 1615 0138 78E7     		b	.L115
 1616              	.LVL214:
 1617              	.L159:
 332:Middlewares/ST/STM32_USB_Device_Library/Core/Src/usbd_ctlreq.c ****           &pdev->ep_out[ep_addr & 0x7FU];
 1618              		.loc 1 332 67 discriminator 1 view .LVU486
 1619 013a 02F07F02 		and	r2, r2, #127
 332:Middlewares/ST/STM32_USB_Device_Library/Core/Src/usbd_ctlreq.c ****           &pdev->ep_out[ep_addr & 0x7FU];
 1620              		.loc 1 332 75 discriminator 1 view .LVU487
 1621 013e 02EB8202 		add	r2, r2, r2, lsl #2
 1622 0142 9100     		lsls	r1, r2, #2
 1623              	.LVL215:
ARM GAS  /var/folders/jr/lt9tb7vj2871x9rxdxc0hz4h0000gn/T//ccaStH1G.s 			page 52


 332:Middlewares/ST/STM32_USB_Device_Library/Core/Src/usbd_ctlreq.c ****           &pdev->ep_out[ep_addr & 0x7FU];
 1624              		.loc 1 332 75 discriminator 1 view .LVU488
 1625 0144 1031     		adds	r1, r1, #16
 1626 0146 2944     		add	r1, r1, r5
 1627 0148 0431     		adds	r1, r1, #4
 1628 014a E9E7     		b	.L136
 1629              	.LVL216:
 1630              	.L132:
 341:Middlewares/ST/STM32_USB_Device_Library/Core/Src/usbd_ctlreq.c ****         {
 1631              		.loc 1 341 9 is_stmt 1 view .LVU489
 341:Middlewares/ST/STM32_USB_Device_Library/Core/Src/usbd_ctlreq.c ****         {
 1632              		.loc 1 341 30 is_stmt 0 view .LVU490
 1633 014c 5BB2     		sxtb	r3, r3
 341:Middlewares/ST/STM32_USB_Device_Library/Core/Src/usbd_ctlreq.c ****         {
 1634              		.loc 1 341 11 view .LVU491
 1635 014e 002B     		cmp	r3, #0
 1636 0150 1EDB     		blt	.L160
 351:Middlewares/ST/STM32_USB_Device_Library/Core/Src/usbd_ctlreq.c ****           {
 1637              		.loc 1 351 11 is_stmt 1 view .LVU492
 351:Middlewares/ST/STM32_USB_Device_Library/Core/Src/usbd_ctlreq.c ****           {
 1638              		.loc 1 351 36 is_stmt 0 view .LVU493
 1639 0152 02F00F00 		and	r0, r2, #15
 351:Middlewares/ST/STM32_USB_Device_Library/Core/Src/usbd_ctlreq.c ****           {
 1640              		.loc 1 351 43 view .LVU494
 1641 0156 00EB8000 		add	r0, r0, r0, lsl #2
 1642 015a 05EB8000 		add	r0, r5, r0, lsl #2
 1643 015e D0F84401 		ldr	r0, [r0, #324]
 351:Middlewares/ST/STM32_USB_Device_Library/Core/Src/usbd_ctlreq.c ****           {
 1644              		.loc 1 351 14 view .LVU495
 1645 0162 18B3     		cbz	r0, .L161
 1646              	.L138:
 358:Middlewares/ST/STM32_USB_Device_Library/Core/Src/usbd_ctlreq.c ****           &pdev->ep_out[ep_addr & 0x7FU];
 1647              		.loc 1 358 9 is_stmt 1 view .LVU496
 358:Middlewares/ST/STM32_USB_Device_Library/Core/Src/usbd_ctlreq.c ****           &pdev->ep_out[ep_addr & 0x7FU];
 1648              		.loc 1 358 75 is_stmt 0 view .LVU497
 1649 0164 002B     		cmp	r3, #0
 1650 0166 26DB     		blt	.L162
 359:Middlewares/ST/STM32_USB_Device_Library/Core/Src/usbd_ctlreq.c **** 
 1651              		.loc 1 359 33 discriminator 2 view .LVU498
 1652 0168 02F07F03 		and	r3, r2, #127
 1653              	.LVL217:
 358:Middlewares/ST/STM32_USB_Device_Library/Core/Src/usbd_ctlreq.c ****           &pdev->ep_out[ep_addr & 0x7FU];
 1654              		.loc 1 358 75 discriminator 2 view .LVU499
 1655 016c 03EB8303 		add	r3, r3, r3, lsl #2
 1656 0170 9C00     		lsls	r4, r3, #2
 1657 0172 04F5A074 		add	r4, r4, #320
 1658 0176 2C44     		add	r4, r4, r5
 1659              	.L140:
 1660              	.LVL218:
 361:Middlewares/ST/STM32_USB_Device_Library/Core/Src/usbd_ctlreq.c ****           {
 1661              		.loc 1 361 11 is_stmt 1 discriminator 4 view .LVU500
 361:Middlewares/ST/STM32_USB_Device_Library/Core/Src/usbd_ctlreq.c ****           {
 1662              		.loc 1 361 14 is_stmt 0 discriminator 4 view .LVU501
 1663 0178 0AB1     		cbz	r2, .L141
 361:Middlewares/ST/STM32_USB_Device_Library/Core/Src/usbd_ctlreq.c ****           {
 1664              		.loc 1 361 34 discriminator 1 view .LVU502
 1665 017a 802A     		cmp	r2, #128
ARM GAS  /var/folders/jr/lt9tb7vj2871x9rxdxc0hz4h0000gn/T//ccaStH1G.s 			page 53


 1666 017c 24D1     		bne	.L142
 1667              	.L141:
 363:Middlewares/ST/STM32_USB_Device_Library/Core/Src/usbd_ctlreq.c ****           }
 1668              		.loc 1 363 13 is_stmt 1 view .LVU503
 363:Middlewares/ST/STM32_USB_Device_Library/Core/Src/usbd_ctlreq.c ****           }
 1669              		.loc 1 363 25 is_stmt 0 view .LVU504
 1670 017e 0023     		movs	r3, #0
 1671 0180 2360     		str	r3, [r4]
 1672              	.LVL219:
 1673              	.L143:
 374:Middlewares/ST/STM32_USB_Device_Library/Core/Src/usbd_ctlreq.c ****           break;
 1674              		.loc 1 374 11 is_stmt 1 view .LVU505
 1675 0182 0222     		movs	r2, #2
 1676 0184 2146     		mov	r1, r4
 1677 0186 2846     		mov	r0, r5
 1678 0188 FFF7FEFF 		bl	USBD_CtlSendData
 1679              	.LVL220:
 375:Middlewares/ST/STM32_USB_Device_Library/Core/Src/usbd_ctlreq.c **** 
 1680              		.loc 1 375 11 view .LVU506
 394:Middlewares/ST/STM32_USB_Device_Library/Core/Src/usbd_ctlreq.c **** }
 1681              		.loc 1 394 10 is_stmt 0 view .LVU507
 1682 018c 3446     		mov	r4, r6
 1683              	.LVL221:
 375:Middlewares/ST/STM32_USB_Device_Library/Core/Src/usbd_ctlreq.c **** 
 1684              		.loc 1 375 11 view .LVU508
 1685 018e 4DE7     		b	.L115
 1686              	.LVL222:
 1687              	.L160:
 343:Middlewares/ST/STM32_USB_Device_Library/Core/Src/usbd_ctlreq.c ****           {
 1688              		.loc 1 343 11 is_stmt 1 view .LVU509
 343:Middlewares/ST/STM32_USB_Device_Library/Core/Src/usbd_ctlreq.c ****           {
 1689              		.loc 1 343 35 is_stmt 0 view .LVU510
 1690 0190 02F00F00 		and	r0, r2, #15
 343:Middlewares/ST/STM32_USB_Device_Library/Core/Src/usbd_ctlreq.c ****           {
 1691              		.loc 1 343 42 view .LVU511
 1692 0194 00EB8000 		add	r0, r0, r0, lsl #2
 1693 0198 05EB8000 		add	r0, r5, r0, lsl #2
 1694 019c 8069     		ldr	r0, [r0, #24]
 343:Middlewares/ST/STM32_USB_Device_Library/Core/Src/usbd_ctlreq.c ****           {
 1695              		.loc 1 343 14 view .LVU512
 1696 019e 0028     		cmp	r0, #0
 1697 01a0 E0D1     		bne	.L138
 345:Middlewares/ST/STM32_USB_Device_Library/Core/Src/usbd_ctlreq.c ****             break;
 1698              		.loc 1 345 13 is_stmt 1 view .LVU513
 1699 01a2 2846     		mov	r0, r5
 1700 01a4 FFF7FEFF 		bl	USBD_CtlError
 1701              	.LVL223:
 346:Middlewares/ST/STM32_USB_Device_Library/Core/Src/usbd_ctlreq.c ****           }
 1702              		.loc 1 346 13 view .LVU514
 394:Middlewares/ST/STM32_USB_Device_Library/Core/Src/usbd_ctlreq.c **** }
 1703              		.loc 1 394 10 is_stmt 0 view .LVU515
 1704 01a8 3446     		mov	r4, r6
 346:Middlewares/ST/STM32_USB_Device_Library/Core/Src/usbd_ctlreq.c ****           }
 1705              		.loc 1 346 13 view .LVU516
 1706 01aa 3FE7     		b	.L115
 1707              	.LVL224:
 1708              	.L161:
ARM GAS  /var/folders/jr/lt9tb7vj2871x9rxdxc0hz4h0000gn/T//ccaStH1G.s 			page 54


 353:Middlewares/ST/STM32_USB_Device_Library/Core/Src/usbd_ctlreq.c ****             break;
 1709              		.loc 1 353 13 is_stmt 1 view .LVU517
 1710 01ac 2846     		mov	r0, r5
 1711 01ae FFF7FEFF 		bl	USBD_CtlError
 1712              	.LVL225:
 354:Middlewares/ST/STM32_USB_Device_Library/Core/Src/usbd_ctlreq.c ****           }
 1713              		.loc 1 354 13 view .LVU518
 394:Middlewares/ST/STM32_USB_Device_Library/Core/Src/usbd_ctlreq.c **** }
 1714              		.loc 1 394 10 is_stmt 0 view .LVU519
 1715 01b2 3446     		mov	r4, r6
 354:Middlewares/ST/STM32_USB_Device_Library/Core/Src/usbd_ctlreq.c ****           }
 1716              		.loc 1 354 13 view .LVU520
 1717 01b4 3AE7     		b	.L115
 1718              	.LVL226:
 1719              	.L162:
 358:Middlewares/ST/STM32_USB_Device_Library/Core/Src/usbd_ctlreq.c ****           &pdev->ep_out[ep_addr & 0x7FU];
 1720              		.loc 1 358 67 discriminator 1 view .LVU521
 1721 01b6 02F07F03 		and	r3, r2, #127
 1722              	.LVL227:
 358:Middlewares/ST/STM32_USB_Device_Library/Core/Src/usbd_ctlreq.c ****           &pdev->ep_out[ep_addr & 0x7FU];
 1723              		.loc 1 358 75 discriminator 1 view .LVU522
 1724 01ba 03EB8303 		add	r3, r3, r3, lsl #2
 1725 01be 9C00     		lsls	r4, r3, #2
 1726 01c0 1034     		adds	r4, r4, #16
 1727 01c2 2C44     		add	r4, r4, r5
 1728 01c4 0434     		adds	r4, r4, #4
 1729 01c6 D7E7     		b	.L140
 1730              	.LVL228:
 1731              	.L142:
 365:Middlewares/ST/STM32_USB_Device_Library/Core/Src/usbd_ctlreq.c ****           {
 1732              		.loc 1 365 16 is_stmt 1 view .LVU523
 365:Middlewares/ST/STM32_USB_Device_Library/Core/Src/usbd_ctlreq.c ****           {
 1733              		.loc 1 365 19 is_stmt 0 view .LVU524
 1734 01c8 1146     		mov	r1, r2
 1735              	.LVL229:
 365:Middlewares/ST/STM32_USB_Device_Library/Core/Src/usbd_ctlreq.c ****           {
 1736              		.loc 1 365 19 view .LVU525
 1737 01ca 2846     		mov	r0, r5
 1738 01cc FFF7FEFF 		bl	USBD_LL_IsStallEP
 1739              	.LVL230:
 365:Middlewares/ST/STM32_USB_Device_Library/Core/Src/usbd_ctlreq.c ****           {
 1740              		.loc 1 365 18 view .LVU526
 1741 01d0 10B1     		cbz	r0, .L144
 367:Middlewares/ST/STM32_USB_Device_Library/Core/Src/usbd_ctlreq.c ****           }
 1742              		.loc 1 367 13 is_stmt 1 view .LVU527
 367:Middlewares/ST/STM32_USB_Device_Library/Core/Src/usbd_ctlreq.c ****           }
 1743              		.loc 1 367 25 is_stmt 0 view .LVU528
 1744 01d2 0123     		movs	r3, #1
 1745 01d4 2360     		str	r3, [r4]
 1746 01d6 D4E7     		b	.L143
 1747              	.L144:
 371:Middlewares/ST/STM32_USB_Device_Library/Core/Src/usbd_ctlreq.c ****           }
 1748              		.loc 1 371 13 is_stmt 1 view .LVU529
 371:Middlewares/ST/STM32_USB_Device_Library/Core/Src/usbd_ctlreq.c ****           }
 1749              		.loc 1 371 25 is_stmt 0 view .LVU530
 1750 01d8 0023     		movs	r3, #0
 1751 01da 2360     		str	r3, [r4]
ARM GAS  /var/folders/jr/lt9tb7vj2871x9rxdxc0hz4h0000gn/T//ccaStH1G.s 			page 55


 1752 01dc D1E7     		b	.L143
 1753              		.cfi_endproc
 1754              	.LFE135:
 1756              		.section	.text.USBD_GetString,"ax",%progbits
 1757              		.align	1
 1758              		.global	USBD_GetString
 1759              		.syntax unified
 1760              		.thumb
 1761              		.thumb_func
 1763              	USBD_GetString:
 1764              	.LVL231:
 1765              	.LFB145:
 799:Middlewares/ST/STM32_USB_Device_Library/Core/Src/usbd_ctlreq.c ****   uint8_t idx = 0U;
 1766              		.loc 1 799 1 is_stmt 1 view -0
 1767              		.cfi_startproc
 1768              		@ args = 0, pretend = 0, frame = 0
 1769              		@ frame_needed = 0, uses_anonymous_args = 0
 800:Middlewares/ST/STM32_USB_Device_Library/Core/Src/usbd_ctlreq.c **** 
 1770              		.loc 1 800 3 view .LVU532
 802:Middlewares/ST/STM32_USB_Device_Library/Core/Src/usbd_ctlreq.c ****   {
 1771              		.loc 1 802 3 view .LVU533
 802:Middlewares/ST/STM32_USB_Device_Library/Core/Src/usbd_ctlreq.c ****   {
 1772              		.loc 1 802 6 is_stmt 0 view .LVU534
 1773 0000 D0B1     		cbz	r0, .L168
 799:Middlewares/ST/STM32_USB_Device_Library/Core/Src/usbd_ctlreq.c ****   uint8_t idx = 0U;
 1774              		.loc 1 799 1 view .LVU535
 1775 0002 70B5     		push	{r4, r5, r6, lr}
 1776              	.LCFI14:
 1777              		.cfi_def_cfa_offset 16
 1778              		.cfi_offset 4, -16
 1779              		.cfi_offset 5, -12
 1780              		.cfi_offset 6, -8
 1781              		.cfi_offset 14, -4
 1782 0004 0D46     		mov	r5, r1
 1783 0006 1646     		mov	r6, r2
 1784 0008 0446     		mov	r4, r0
 804:Middlewares/ST/STM32_USB_Device_Library/Core/Src/usbd_ctlreq.c ****     unicode[idx++] = *(uint8_t *)(void *)len;
 1785              		.loc 1 804 5 is_stmt 1 view .LVU536
 804:Middlewares/ST/STM32_USB_Device_Library/Core/Src/usbd_ctlreq.c ****     unicode[idx++] = *(uint8_t *)(void *)len;
 1786              		.loc 1 804 22 is_stmt 0 view .LVU537
 1787 000a FFF7FEFF 		bl	USBD_GetLen
 1788              	.LVL232:
 804:Middlewares/ST/STM32_USB_Device_Library/Core/Src/usbd_ctlreq.c ****     unicode[idx++] = *(uint8_t *)(void *)len;
 1789              		.loc 1 804 45 view .LVU538
 1790 000e 431C     		adds	r3, r0, #1
 804:Middlewares/ST/STM32_USB_Device_Library/Core/Src/usbd_ctlreq.c ****     unicode[idx++] = *(uint8_t *)(void *)len;
 1791              		.loc 1 804 10 view .LVU539
 1792 0010 5B00     		lsls	r3, r3, #1
 1793 0012 9BB2     		uxth	r3, r3
 1794 0014 3380     		strh	r3, [r6]	@ movhi
 805:Middlewares/ST/STM32_USB_Device_Library/Core/Src/usbd_ctlreq.c ****     unicode[idx++] = USB_DESC_TYPE_STRING;
 1795              		.loc 1 805 5 is_stmt 1 view .LVU540
 1796              	.LVL233:
 805:Middlewares/ST/STM32_USB_Device_Library/Core/Src/usbd_ctlreq.c ****     unicode[idx++] = USB_DESC_TYPE_STRING;
 1797              		.loc 1 805 20 is_stmt 0 view .LVU541
 1798 0016 2B70     		strb	r3, [r5]
 806:Middlewares/ST/STM32_USB_Device_Library/Core/Src/usbd_ctlreq.c **** 
ARM GAS  /var/folders/jr/lt9tb7vj2871x9rxdxc0hz4h0000gn/T//ccaStH1G.s 			page 56


 1799              		.loc 1 806 5 is_stmt 1 view .LVU542
 1800              	.LVL234:
 806:Middlewares/ST/STM32_USB_Device_Library/Core/Src/usbd_ctlreq.c **** 
 1801              		.loc 1 806 20 is_stmt 0 view .LVU543
 1802 0018 0323     		movs	r3, #3
 1803 001a 6B70     		strb	r3, [r5, #1]
 808:Middlewares/ST/STM32_USB_Device_Library/Core/Src/usbd_ctlreq.c ****     {
 1804              		.loc 1 808 5 is_stmt 1 view .LVU544
 806:Middlewares/ST/STM32_USB_Device_Library/Core/Src/usbd_ctlreq.c **** 
 1805              		.loc 1 806 16 is_stmt 0 view .LVU545
 1806 001c 0223     		movs	r3, #2
 808:Middlewares/ST/STM32_USB_Device_Library/Core/Src/usbd_ctlreq.c ****     {
 1807              		.loc 1 808 11 view .LVU546
 1808 001e 07E0     		b	.L165
 1809              	.LVL235:
 1810              	.L166:
 810:Middlewares/ST/STM32_USB_Device_Library/Core/Src/usbd_ctlreq.c ****       unicode[idx++] =  0U;
 1811              		.loc 1 810 7 is_stmt 1 view .LVU547
 810:Middlewares/ST/STM32_USB_Device_Library/Core/Src/usbd_ctlreq.c ****       unicode[idx++] =  0U;
 1812              		.loc 1 810 29 is_stmt 0 view .LVU548
 1813 0020 0134     		adds	r4, r4, #1
 1814              	.LVL236:
 810:Middlewares/ST/STM32_USB_Device_Library/Core/Src/usbd_ctlreq.c ****       unicode[idx++] =  0U;
 1815              		.loc 1 810 18 view .LVU549
 1816 0022 5A1C     		adds	r2, r3, #1
 1817 0024 D2B2     		uxtb	r2, r2
 1818              	.LVL237:
 810:Middlewares/ST/STM32_USB_Device_Library/Core/Src/usbd_ctlreq.c ****       unicode[idx++] =  0U;
 1819              		.loc 1 810 22 view .LVU550
 1820 0026 E854     		strb	r0, [r5, r3]
 811:Middlewares/ST/STM32_USB_Device_Library/Core/Src/usbd_ctlreq.c ****     }
 1821              		.loc 1 811 7 is_stmt 1 view .LVU551
 811:Middlewares/ST/STM32_USB_Device_Library/Core/Src/usbd_ctlreq.c ****     }
 1822              		.loc 1 811 18 is_stmt 0 view .LVU552
 1823 0028 0233     		adds	r3, r3, #2
 1824 002a DBB2     		uxtb	r3, r3
 1825              	.LVL238:
 811:Middlewares/ST/STM32_USB_Device_Library/Core/Src/usbd_ctlreq.c ****     }
 1826              		.loc 1 811 22 view .LVU553
 1827 002c 0021     		movs	r1, #0
 1828 002e A954     		strb	r1, [r5, r2]
 1829              	.LVL239:
 1830              	.L165:
 808:Middlewares/ST/STM32_USB_Device_Library/Core/Src/usbd_ctlreq.c ****     {
 1831              		.loc 1 808 18 is_stmt 1 view .LVU554
 808:Middlewares/ST/STM32_USB_Device_Library/Core/Src/usbd_ctlreq.c ****     {
 1832              		.loc 1 808 12 is_stmt 0 view .LVU555
 1833 0030 2078     		ldrb	r0, [r4]	@ zero_extendqisi2
 808:Middlewares/ST/STM32_USB_Device_Library/Core/Src/usbd_ctlreq.c ****     {
 1834              		.loc 1 808 18 view .LVU556
 1835 0032 0028     		cmp	r0, #0
 1836 0034 F4D1     		bne	.L166
 814:Middlewares/ST/STM32_USB_Device_Library/Core/Src/usbd_ctlreq.c **** 
 1837              		.loc 1 814 1 view .LVU557
 1838 0036 70BD     		pop	{r4, r5, r6, pc}
 1839              	.LVL240:
 1840              	.L168:
ARM GAS  /var/folders/jr/lt9tb7vj2871x9rxdxc0hz4h0000gn/T//ccaStH1G.s 			page 57


 1841              	.LCFI15:
 1842              		.cfi_def_cfa_offset 0
 1843              		.cfi_restore 4
 1844              		.cfi_restore 5
 1845              		.cfi_restore 6
 1846              		.cfi_restore 14
 814:Middlewares/ST/STM32_USB_Device_Library/Core/Src/usbd_ctlreq.c **** 
 1847              		.loc 1 814 1 view .LVU558
 1848 0038 7047     		bx	lr
 1849              		.cfi_endproc
 1850              	.LFE145:
 1852              		.section	.bss.cfgidx.0,"aw",%nobits
 1853              		.set	.LANCHOR0,. + 0
 1856              	cfgidx.0:
 1857 0000 00       		.space	1
 1858              		.text
 1859              	.Letext0:
 1860              		.file 2 "/Applications/ARM/arm-none-eabi/include/machine/_default_types.h"
 1861              		.file 3 "/Applications/ARM/arm-none-eabi/include/sys/_stdint.h"
 1862              		.file 4 "Middlewares/ST/STM32_USB_Device_Library/Core/Inc/usbd_def.h"
 1863              		.file 5 "Middlewares/ST/STM32_USB_Device_Library/Core/Inc/usbd_core.h"
 1864              		.file 6 "Middlewares/ST/STM32_USB_Device_Library/Core/Inc/usbd_ioreq.h"
ARM GAS  /var/folders/jr/lt9tb7vj2871x9rxdxc0hz4h0000gn/T//ccaStH1G.s 			page 58

